
lab4_code.elf:     file format elf32-avr

Sections:
Idx Name          Size      VMA       LMA       File off  Algn
  0 .data         00000016  00800100  00001288  0000131c  2**0
                  CONTENTS, ALLOC, LOAD, DATA
  1 .text         00001288  00000000  00000000  00000094  2**1
                  CONTENTS, ALLOC, LOAD, READONLY, CODE
  2 .bss          0000006a  00800116  00800116  00001332  2**0
                  ALLOC
  3 .comment      00000030  00000000  00000000  00001332  2**0
                  CONTENTS, READONLY
  4 .note.gnu.avr.deviceinfo 0000003c  00000000  00000000  00001364  2**2
                  CONTENTS, READONLY
  5 .debug_aranges 00000048  00000000  00000000  000013a0  2**0
                  CONTENTS, READONLY, DEBUGGING
  6 .debug_info   000020c6  00000000  00000000  000013e8  2**0
                  CONTENTS, READONLY, DEBUGGING
  7 .debug_abbrev 00000d44  00000000  00000000  000034ae  2**0
                  CONTENTS, READONLY, DEBUGGING
  8 .debug_line   00000fa4  00000000  00000000  000041f2  2**0
                  CONTENTS, READONLY, DEBUGGING
  9 .debug_frame  0000038c  00000000  00000000  00005198  2**2
                  CONTENTS, READONLY, DEBUGGING
 10 .debug_str    00000692  00000000  00000000  00005524  2**0
                  CONTENTS, READONLY, DEBUGGING
 11 .debug_loc    00001b67  00000000  00000000  00005bb6  2**0
                  CONTENTS, READONLY, DEBUGGING
 12 .debug_ranges 000000d0  00000000  00000000  0000771d  2**0
                  CONTENTS, READONLY, DEBUGGING

Disassembly of section .text:

00000000 <__vectors>:
       0:	0c 94 46 00 	jmp	0x8c	; 0x8c <__ctors_end>
       4:	0c 94 65 00 	jmp	0xca	; 0xca <__bad_interrupt>
       8:	0c 94 65 00 	jmp	0xca	; 0xca <__bad_interrupt>
       c:	0c 94 65 00 	jmp	0xca	; 0xca <__bad_interrupt>
      10:	0c 94 65 00 	jmp	0xca	; 0xca <__bad_interrupt>
      14:	0c 94 65 00 	jmp	0xca	; 0xca <__bad_interrupt>
      18:	0c 94 65 00 	jmp	0xca	; 0xca <__bad_interrupt>
      1c:	0c 94 65 00 	jmp	0xca	; 0xca <__bad_interrupt>
      20:	0c 94 65 00 	jmp	0xca	; 0xca <__bad_interrupt>
      24:	0c 94 65 00 	jmp	0xca	; 0xca <__bad_interrupt>
      28:	0c 94 65 00 	jmp	0xca	; 0xca <__bad_interrupt>
      2c:	0c 94 65 00 	jmp	0xca	; 0xca <__bad_interrupt>
      30:	0c 94 65 00 	jmp	0xca	; 0xca <__bad_interrupt>
      34:	0c 94 65 00 	jmp	0xca	; 0xca <__bad_interrupt>
      38:	0c 94 65 00 	jmp	0xca	; 0xca <__bad_interrupt>
      3c:	0c 94 65 00 	jmp	0xca	; 0xca <__bad_interrupt>
      40:	0c 94 62 02 	jmp	0x4c4	; 0x4c4 <__vector_16>
      44:	0c 94 65 00 	jmp	0xca	; 0xca <__bad_interrupt>
      48:	0c 94 65 00 	jmp	0xca	; 0xca <__bad_interrupt>
      4c:	0c 94 65 00 	jmp	0xca	; 0xca <__bad_interrupt>
      50:	0c 94 65 00 	jmp	0xca	; 0xca <__bad_interrupt>
      54:	0c 94 65 00 	jmp	0xca	; 0xca <__bad_interrupt>
      58:	0c 94 65 00 	jmp	0xca	; 0xca <__bad_interrupt>
      5c:	0c 94 65 00 	jmp	0xca	; 0xca <__bad_interrupt>
      60:	0c 94 65 00 	jmp	0xca	; 0xca <__bad_interrupt>
      64:	0c 94 65 00 	jmp	0xca	; 0xca <__bad_interrupt>
      68:	0c 94 65 00 	jmp	0xca	; 0xca <__bad_interrupt>
      6c:	0c 94 65 00 	jmp	0xca	; 0xca <__bad_interrupt>
      70:	0c 94 65 00 	jmp	0xca	; 0xca <__bad_interrupt>
      74:	0c 94 65 00 	jmp	0xca	; 0xca <__bad_interrupt>
      78:	0c 94 65 00 	jmp	0xca	; 0xca <__bad_interrupt>
      7c:	0c 94 65 00 	jmp	0xca	; 0xca <__bad_interrupt>
      80:	0c 94 65 00 	jmp	0xca	; 0xca <__bad_interrupt>
      84:	0c 94 65 00 	jmp	0xca	; 0xca <__bad_interrupt>
      88:	0c 94 65 00 	jmp	0xca	; 0xca <__bad_interrupt>

0000008c <__ctors_end>:
      8c:	11 24       	eor	r1, r1
      8e:	1f be       	out	0x3f, r1	; 63
      90:	cf ef       	ldi	r28, 0xFF	; 255
      92:	d0 e1       	ldi	r29, 0x10	; 16
      94:	de bf       	out	0x3e, r29	; 62
      96:	cd bf       	out	0x3d, r28	; 61

00000098 <__do_copy_data>:
      98:	11 e0       	ldi	r17, 0x01	; 1
      9a:	a0 e0       	ldi	r26, 0x00	; 0
      9c:	b1 e0       	ldi	r27, 0x01	; 1
      9e:	e8 e8       	ldi	r30, 0x88	; 136
      a0:	f2 e1       	ldi	r31, 0x12	; 18
      a2:	00 e0       	ldi	r16, 0x00	; 0
      a4:	0b bf       	out	0x3b, r16	; 59
      a6:	02 c0       	rjmp	.+4      	; 0xac <__do_copy_data+0x14>
      a8:	07 90       	elpm	r0, Z+
      aa:	0d 92       	st	X+, r0
      ac:	a6 31       	cpi	r26, 0x16	; 22
      ae:	b1 07       	cpc	r27, r17
      b0:	d9 f7       	brne	.-10     	; 0xa8 <__do_copy_data+0x10>

000000b2 <__do_clear_bss>:
      b2:	21 e0       	ldi	r18, 0x01	; 1
      b4:	a6 e1       	ldi	r26, 0x16	; 22
      b6:	b1 e0       	ldi	r27, 0x01	; 1
      b8:	01 c0       	rjmp	.+2      	; 0xbc <.do_clear_bss_start>

000000ba <.do_clear_bss_loop>:
      ba:	1d 92       	st	X+, r1

000000bc <.do_clear_bss_start>:
      bc:	a0 38       	cpi	r26, 0x80	; 128
      be:	b2 07       	cpc	r27, r18
      c0:	e1 f7       	brne	.-8      	; 0xba <.do_clear_bss_loop>
      c2:	0e 94 23 08 	call	0x1046	; 0x1046 <main>
      c6:	0c 94 42 09 	jmp	0x1284	; 0x1284 <_exit>

000000ca <__bad_interrupt>:
      ca:	0c 94 00 00 	jmp	0	; 0x0 <__vectors>

000000ce <set_dec_to_7seg>:
// setting the dec_to_7seg array for which segment to turn off in order to see
// the digit on the LED display. 
/******************************************************************************/
void set_dec_to_7seg()
{
    dec_to_7seg[0] = ~(ZERO);
      ce:	ef e3       	ldi	r30, 0x3F	; 63
      d0:	f1 e0       	ldi	r31, 0x01	; 1
      d2:	80 ec       	ldi	r24, 0xC0	; 192
      d4:	80 83       	st	Z, r24
    dec_to_7seg[1] = ~(ONE);
      d6:	89 ef       	ldi	r24, 0xF9	; 249
      d8:	81 83       	std	Z+1, r24	; 0x01
    dec_to_7seg[2] = ~(TWO);
      da:	84 ea       	ldi	r24, 0xA4	; 164
      dc:	82 83       	std	Z+2, r24	; 0x02
    dec_to_7seg[3] = ~(THREE);
      de:	80 eb       	ldi	r24, 0xB0	; 176
      e0:	83 83       	std	Z+3, r24	; 0x03
    dec_to_7seg[4] = ~(FOUR);
      e2:	89 e9       	ldi	r24, 0x99	; 153
      e4:	84 83       	std	Z+4, r24	; 0x04
    dec_to_7seg[5] = ~(FIVE);
      e6:	82 e9       	ldi	r24, 0x92	; 146
      e8:	85 83       	std	Z+5, r24	; 0x05
    dec_to_7seg[6] = ~(SIX);
      ea:	82 e8       	ldi	r24, 0x82	; 130
      ec:	86 83       	std	Z+6, r24	; 0x06
    dec_to_7seg[7] = ~(SEVEN);
      ee:	88 ef       	ldi	r24, 0xF8	; 248
      f0:	87 83       	std	Z+7, r24	; 0x07
    dec_to_7seg[8] = ~(EIGHT);
      f2:	80 e8       	ldi	r24, 0x80	; 128
      f4:	80 87       	std	Z+8, r24	; 0x08
    dec_to_7seg[9] = ~(NINE);
      f6:	88 e9       	ldi	r24, 0x98	; 152
      f8:	81 87       	std	Z+9, r24	; 0x09
    dec_to_7seg[10] = ~(COLON);
      fa:	8c ef       	ldi	r24, 0xFC	; 252
      fc:	82 87       	std	Z+10, r24	; 0x0a
    dec_to_7seg[11] = ~(BLANK);
      fe:	8f ef       	ldi	r24, 0xFF	; 255
     100:	83 87       	std	Z+11, r24	; 0x0b
     102:	08 95       	ret

00000104 <set_decoder>:
// This function sets the right value for decoder so that it display the right 
// digit. The index value of the decoder represents the Yx output of the decoder.
/******************************************************************************/
void set_decoder()
{
    decoder[0] = DIGIT4;
     104:	e7 e3       	ldi	r30, 0x37	; 55
     106:	f1 e0       	ldi	r31, 0x01	; 1
     108:	10 82       	st	Z, r1
    decoder[1] = DIGIT3;
     10a:	80 e1       	ldi	r24, 0x10	; 16
     10c:	81 83       	std	Z+1, r24	; 0x01
    decoder[2] = DIS_COLON;
     10e:	80 e2       	ldi	r24, 0x20	; 32
     110:	82 83       	std	Z+2, r24	; 0x02
    decoder[3] = DIGIT2;
     112:	80 e3       	ldi	r24, 0x30	; 48
     114:	83 83       	std	Z+3, r24	; 0x03
    decoder[4] = DIGIT1;
     116:	80 e4       	ldi	r24, 0x40	; 64
     118:	84 83       	std	Z+4, r24	; 0x04
    decoder[7] = TRI_BUFFER;
     11a:	80 e7       	ldi	r24, 0x70	; 112
     11c:	87 83       	std	Z+7, r24	; 0x07
     11e:	08 95       	ret

00000120 <chk_buttons>:
//Adapted to check all buttons from Ganssel's "Guide to Debouncing"
//Expects active low pushbuttons on PINA port.  Debounce time is determined by
//external loop delay times 12.
//
int8_t chk_buttons(int button)
{
     120:	ac 01       	movw	r20, r24
    // bit_is_clear: test whether but but in IO register sfr is clear. This will return non zero
    // if the but is clear, and 0 if the bit is set
    // handling multiple inputs
    // https://www.avrfreaks.net/sites/default/files/debouncing.pdf'

    state[button] = (state[button] << 1) | (!bit_is_clear(PINA, button)) | 0xE000; // when the second button is pressed
     122:	99 b3       	in	r25, 0x19	; 25
     124:	fa 01       	movw	r30, r20
     126:	ee 0f       	add	r30, r30
     128:	ff 1f       	adc	r31, r31
     12a:	e5 5e       	subi	r30, 0xE5	; 229
     12c:	fe 4f       	sbci	r31, 0xFE	; 254
     12e:	20 81       	ld	r18, Z
     130:	31 81       	ldd	r19, Z+1	; 0x01
     132:	22 0f       	add	r18, r18
     134:	33 1f       	adc	r19, r19
     136:	30 6e       	ori	r19, 0xE0	; 224
     138:	89 2f       	mov	r24, r25
     13a:	90 e0       	ldi	r25, 0x00	; 0
     13c:	02 c0       	rjmp	.+4      	; 0x142 <chk_buttons+0x22>
     13e:	95 95       	asr	r25
     140:	87 95       	ror	r24
     142:	4a 95       	dec	r20
     144:	e2 f7       	brpl	.-8      	; 0x13e <chk_buttons+0x1e>
     146:	81 70       	andi	r24, 0x01	; 1
     148:	99 27       	eor	r25, r25
     14a:	28 2b       	or	r18, r24
     14c:	39 2b       	or	r19, r25
     14e:	31 83       	std	Z+1, r19	; 0x01
     150:	20 83       	st	Z, r18
     152:	81 e0       	ldi	r24, 0x01	; 1
     154:	21 15       	cp	r18, r1
     156:	30 4f       	sbci	r19, 0xF0	; 240
     158:	09 f0       	breq	.+2      	; 0x15c <chk_buttons+0x3c>
     15a:	80 e0       	ldi	r24, 0x00	; 0

    if (state[button] == 0xF000)
        return 1;

    return 0;
}
     15c:	08 95       	ret

0000015e <segsum>:
//                                   segment_sum
//takes a 16-bit binary input value and places the appropriate equivalent 4 digit
//BCD segment code in the array segment_data for display.
//array is loaded at exit as:  |digit3|digit2|colon|digit1|digit0|
void segsum(uint16_t sum)
{
     15e:	ac 01       	movw	r20, r24
    //break up decimal sum into 4 digit-segments
    //blank out leading zero digits
    //now move data to right place for misplaced colon position
    int i;//, leading_zero;

    segment_data[0] = sum % 10;
     160:	9c 01       	movw	r18, r24
     162:	ad ec       	ldi	r26, 0xCD	; 205
     164:	bc ec       	ldi	r27, 0xCC	; 204
     166:	0e 94 fd 08 	call	0x11fa	; 0x11fa <__umulhisi3>
     16a:	96 95       	lsr	r25
     16c:	87 95       	ror	r24
     16e:	96 95       	lsr	r25
     170:	87 95       	ror	r24
     172:	96 95       	lsr	r25
     174:	87 95       	ror	r24
     176:	9c 01       	movw	r18, r24
     178:	22 0f       	add	r18, r18
     17a:	33 1f       	adc	r19, r19
     17c:	88 0f       	add	r24, r24
     17e:	99 1f       	adc	r25, r25
     180:	88 0f       	add	r24, r24
     182:	99 1f       	adc	r25, r25
     184:	88 0f       	add	r24, r24
     186:	99 1f       	adc	r25, r25
     188:	82 0f       	add	r24, r18
     18a:	93 1f       	adc	r25, r19
     18c:	9a 01       	movw	r18, r20
     18e:	28 1b       	sub	r18, r24
     190:	39 0b       	sbc	r19, r25
     192:	20 93 4b 01 	sts	0x014B, r18	; 0x80014b <segment_data>
    segment_data[1] = (sum % 100) / 10;
     196:	9a 01       	movw	r18, r20
     198:	36 95       	lsr	r19
     19a:	27 95       	ror	r18
     19c:	36 95       	lsr	r19
     19e:	27 95       	ror	r18
     1a0:	ab e7       	ldi	r26, 0x7B	; 123
     1a2:	b4 e1       	ldi	r27, 0x14	; 20
     1a4:	0e 94 fd 08 	call	0x11fa	; 0x11fa <__umulhisi3>
     1a8:	96 95       	lsr	r25
     1aa:	87 95       	ror	r24
     1ac:	64 e6       	ldi	r22, 0x64	; 100
     1ae:	68 9f       	mul	r22, r24
     1b0:	90 01       	movw	r18, r0
     1b2:	69 9f       	mul	r22, r25
     1b4:	30 0d       	add	r19, r0
     1b6:	11 24       	eor	r1, r1
     1b8:	ca 01       	movw	r24, r20
     1ba:	82 1b       	sub	r24, r18
     1bc:	93 0b       	sbc	r25, r19
     1be:	9c 01       	movw	r18, r24
     1c0:	ad ec       	ldi	r26, 0xCD	; 205
     1c2:	bc ec       	ldi	r27, 0xCC	; 204
     1c4:	0e 94 fd 08 	call	0x11fa	; 0x11fa <__umulhisi3>
     1c8:	96 95       	lsr	r25
     1ca:	87 95       	ror	r24
     1cc:	96 95       	lsr	r25
     1ce:	87 95       	ror	r24
     1d0:	96 95       	lsr	r25
     1d2:	87 95       	ror	r24
     1d4:	80 93 4c 01 	sts	0x014C, r24	; 0x80014c <segment_data+0x1>
    // segment_data[2] = 11; // doesn't turn on the colon, blank
    segment_data[2] = (colonDisplay == 1) ? 10 : 11;
     1d8:	80 91 33 01 	lds	r24, 0x0133	; 0x800133 <colonDisplay>
     1dc:	81 30       	cpi	r24, 0x01	; 1
     1de:	09 f4       	brne	.+2      	; 0x1e2 <segsum+0x84>
     1e0:	46 c0       	rjmp	.+140    	; 0x26e <segsum+0x110>
     1e2:	8b e0       	ldi	r24, 0x0B	; 11
     1e4:	80 93 4d 01 	sts	0x014D, r24	; 0x80014d <segment_data+0x2>
    segment_data[3] = (sum % 1000) / 100;
     1e8:	9a 01       	movw	r18, r20
     1ea:	36 95       	lsr	r19
     1ec:	27 95       	ror	r18
     1ee:	36 95       	lsr	r19
     1f0:	27 95       	ror	r18
     1f2:	36 95       	lsr	r19
     1f4:	27 95       	ror	r18
     1f6:	a5 ec       	ldi	r26, 0xC5	; 197
     1f8:	b0 e2       	ldi	r27, 0x20	; 32
     1fa:	0e 94 fd 08 	call	0x11fa	; 0x11fa <__umulhisi3>
     1fe:	fc 01       	movw	r30, r24
     200:	f2 95       	swap	r31
     202:	e2 95       	swap	r30
     204:	ef 70       	andi	r30, 0x0F	; 15
     206:	ef 27       	eor	r30, r31
     208:	ff 70       	andi	r31, 0x0F	; 15
     20a:	ef 27       	eor	r30, r31
     20c:	28 ee       	ldi	r18, 0xE8	; 232
     20e:	33 e0       	ldi	r19, 0x03	; 3
     210:	e2 9f       	mul	r30, r18
     212:	c0 01       	movw	r24, r0
     214:	e3 9f       	mul	r30, r19
     216:	90 0d       	add	r25, r0
     218:	f2 9f       	mul	r31, r18
     21a:	90 0d       	add	r25, r0
     21c:	11 24       	eor	r1, r1
     21e:	9a 01       	movw	r18, r20
     220:	28 1b       	sub	r18, r24
     222:	39 0b       	sbc	r19, r25
     224:	36 95       	lsr	r19
     226:	27 95       	ror	r18
     228:	36 95       	lsr	r19
     22a:	27 95       	ror	r18
     22c:	ab e7       	ldi	r26, 0x7B	; 123
     22e:	b4 e1       	ldi	r27, 0x14	; 20
     230:	0e 94 fd 08 	call	0x11fa	; 0x11fa <__umulhisi3>
     234:	96 95       	lsr	r25
     236:	87 95       	ror	r24
     238:	80 93 4e 01 	sts	0x014E, r24	; 0x80014e <segment_data+0x3>
    segment_data[4] = sum / 1000;
     23c:	e0 93 4f 01 	sts	0x014F, r30	; 0x80014f <segment_data+0x4>
     240:	eb e4       	ldi	r30, 0x4B	; 75
     242:	f1 e0       	ldi	r31, 0x01	; 1
     244:	83 e0       	ldi	r24, 0x03	; 3
     246:	90 e0       	ldi	r25, 0x00	; 0
    // leading_zero = 1;
    for(i = 4; i >0; i--){
        if(i == 2)
            continue;
        if(segment_data[i] == 0)
            segment_data[i] = 11; // replace it with a blank
     248:	3b e0       	ldi	r19, 0x0B	; 11
    segment_data[4] = sum / 1000;

    // remove the leading zeros
    // leading_zero = 1;
    for(i = 4; i >0; i--){
        if(i == 2)
     24a:	81 30       	cpi	r24, 0x01	; 1
     24c:	91 05       	cpc	r25, r1
     24e:	31 f0       	breq	.+12     	; 0x25c <segsum+0xfe>
            continue;
        if(segment_data[i] == 0)
     250:	24 81       	ldd	r18, Z+4	; 0x04
     252:	21 11       	cpse	r18, r1
     254:	0b c0       	rjmp	.+22     	; 0x26c <segsum+0x10e>
            segment_data[i] = 11; // replace it with a blank
     256:	34 83       	std	Z+4, r19	; 0x04
    segment_data[3] = (sum % 1000) / 100;
    segment_data[4] = sum / 1000;

    // remove the leading zeros
    // leading_zero = 1;
    for(i = 4; i >0; i--){
     258:	00 97       	sbiw	r24, 0x00	; 0
     25a:	41 f0       	breq	.+16     	; 0x26c <segsum+0x10e>
     25c:	01 97       	sbiw	r24, 0x01	; 1
     25e:	31 97       	sbiw	r30, 0x01	; 1
        if(i == 2)
     260:	81 30       	cpi	r24, 0x01	; 1
     262:	91 05       	cpc	r25, r1
     264:	d9 f3       	breq	.-10     	; 0x25c <segsum+0xfe>
            continue;
        if(segment_data[i] == 0)
     266:	24 81       	ldd	r18, Z+4	; 0x04
     268:	22 23       	and	r18, r18
     26a:	a9 f3       	breq	.-22     	; 0x256 <segsum+0xf8>
     26c:	08 95       	ret
    int i;//, leading_zero;

    segment_data[0] = sum % 10;
    segment_data[1] = (sum % 100) / 10;
    // segment_data[2] = 11; // doesn't turn on the colon, blank
    segment_data[2] = (colonDisplay == 1) ? 10 : 11;
     26e:	8a e0       	ldi	r24, 0x0A	; 10
     270:	b9 cf       	rjmp	.-142    	; 0x1e4 <segsum+0x86>

00000272 <segclock>:
//takes two 8-bit binary values(hours and minutes) and places the appropriate 
//equivalent 4 digit.
//BCD segment code in the array segment_data for display.
//array is loaded at exit as:  |digit3|digit2|colon|digit1|digit0|
void segclock(){
    segment_data[0] = minutes % 10;
     272:	90 91 2e 01 	lds	r25, 0x012E	; 0x80012e <minutes>
     276:	8d ec       	ldi	r24, 0xCD	; 205
     278:	98 9f       	mul	r25, r24
     27a:	81 2d       	mov	r24, r1
     27c:	11 24       	eor	r1, r1
     27e:	86 95       	lsr	r24
     280:	86 95       	lsr	r24
     282:	86 95       	lsr	r24
     284:	2a e0       	ldi	r18, 0x0A	; 10
     286:	82 9f       	mul	r24, r18
     288:	90 19       	sub	r25, r0
     28a:	11 24       	eor	r1, r1
     28c:	90 93 4b 01 	sts	0x014B, r25	; 0x80014b <segment_data>
    segment_data[1] = minutes / 10;
     290:	80 93 4c 01 	sts	0x014C, r24	; 0x80014c <segment_data+0x1>
    segment_data[2] = (colonDisplay == 1) ? 10 : 11;
     294:	80 91 33 01 	lds	r24, 0x0133	; 0x800133 <colonDisplay>
     298:	81 30       	cpi	r24, 0x01	; 1
     29a:	a9 f0       	breq	.+42     	; 0x2c6 <segclock+0x54>
     29c:	8b e0       	ldi	r24, 0x0B	; 11
     29e:	80 93 4d 01 	sts	0x014D, r24	; 0x80014d <segment_data+0x2>
    segment_data[3] = hours % 10;
     2a2:	90 91 2d 01 	lds	r25, 0x012D	; 0x80012d <hours>
     2a6:	8d ec       	ldi	r24, 0xCD	; 205
     2a8:	98 9f       	mul	r25, r24
     2aa:	81 2d       	mov	r24, r1
     2ac:	11 24       	eor	r1, r1
     2ae:	86 95       	lsr	r24
     2b0:	86 95       	lsr	r24
     2b2:	86 95       	lsr	r24
     2b4:	2a e0       	ldi	r18, 0x0A	; 10
     2b6:	82 9f       	mul	r24, r18
     2b8:	90 19       	sub	r25, r0
     2ba:	11 24       	eor	r1, r1
     2bc:	90 93 4e 01 	sts	0x014E, r25	; 0x80014e <segment_data+0x3>
    segment_data[4] = hours / 10;
     2c0:	80 93 4f 01 	sts	0x014F, r24	; 0x80014f <segment_data+0x4>
     2c4:	08 95       	ret
//BCD segment code in the array segment_data for display.
//array is loaded at exit as:  |digit3|digit2|colon|digit1|digit0|
void segclock(){
    segment_data[0] = minutes % 10;
    segment_data[1] = minutes / 10;
    segment_data[2] = (colonDisplay == 1) ? 10 : 11;
     2c6:	8a e0       	ldi	r24, 0x0A	; 10
     2c8:	ea cf       	rjmp	.-44     	; 0x29e <segclock+0x2c>

000002ca <setDigit>:
// The cases set the value on PORTA to the right segments and PORTB
// to decoder.
/***************************************************************/

void setDigit()
{
     2ca:	cf 93       	push	r28
     2cc:	df 93       	push	r29
    DDRA = 0xFF; // setting PORT A as an output
     2ce:	8f ef       	ldi	r24, 0xFF	; 255
     2d0:	8a bb       	out	0x1a, r24	; 26
     2d2:	a7 e3       	ldi	r26, 0x37	; 55
     2d4:	b1 e0       	ldi	r27, 0x01	; 1
     2d6:	cb e4       	ldi	r28, 0x4B	; 75
     2d8:	d1 e0       	ldi	r29, 0x01	; 1
    int i;
    for (i = 0; i < 5; i++)
    { // looping through the segment data and assigning the port the right values.
        PORTB = decoder[i]; // enable the right digit to turn on
     2da:	8d 91       	ld	r24, X+
     2dc:	88 bb       	out	0x18, r24	; 24
        PORTA = dec_to_7seg[segment_data[i]]; // turn on the right segments
     2de:	e9 91       	ld	r30, Y+
     2e0:	f0 e0       	ldi	r31, 0x00	; 0
     2e2:	e1 5c       	subi	r30, 0xC1	; 193
     2e4:	fe 4f       	sbci	r31, 0xFE	; 254
     2e6:	80 81       	ld	r24, Z
     2e8:	8b bb       	out	0x1b, r24	; 27
	#else
		//round up by default
		__ticks_dc = (uint32_t)(ceil(fabs(__tmp)));
	#endif

	__builtin_avr_delay_cycles(__ticks_dc);
     2ea:	8f ec       	ldi	r24, 0xCF	; 207
     2ec:	97 e0       	ldi	r25, 0x07	; 7
     2ee:	01 97       	sbiw	r24, 0x01	; 1
     2f0:	f1 f7       	brne	.-4      	; 0x2ee <setDigit+0x24>
     2f2:	00 c0       	rjmp	.+0      	; 0x2f4 <setDigit+0x2a>
     2f4:	00 00       	nop

void setDigit()
{
    DDRA = 0xFF; // setting PORT A as an output
    int i;
    for (i = 0; i < 5; i++)
     2f6:	91 e0       	ldi	r25, 0x01	; 1
     2f8:	ac 33       	cpi	r26, 0x3C	; 60
     2fa:	b9 07       	cpc	r27, r25
     2fc:	71 f7       	brne	.-36     	; 0x2da <setDigit+0x10>
    { // looping through the segment data and assigning the port the right values.
        PORTB = decoder[i]; // enable the right digit to turn on
        PORTA = dec_to_7seg[segment_data[i]]; // turn on the right segments
        _delay_ms(0.5);
    }
}
     2fe:	df 91       	pop	r29
     300:	cf 91       	pop	r28
     302:	08 95       	ret

00000304 <spi_init>:
//external device specific initalizations.  Sets up SPI to be:                        
//master mode, clock=clk/2, cycle half phase, low polarity, MSB first
//interrupts disabled, poll SPIF bit in SPSR to check xmit completion
/***********************************************************************/
void spi_init(void){
    DDRB  |=   0x07; //Turn on SS, MOSI, SCLK
     304:	87 b3       	in	r24, 0x17	; 23
     306:	87 60       	ori	r24, 0x07	; 7
     308:	87 bb       	out	0x17, r24	; 23
    SPCR  |=   (1 << SPE) | (1 << MSTR); //enable SPI, master mode 
     30a:	8d b1       	in	r24, 0x0d	; 13
     30c:	80 65       	ori	r24, 0x50	; 80
     30e:	8d b9       	out	0x0d, r24	; 13
    SPSR  |=   (1 << SPI2X); // double speed operation
     310:	70 9a       	sbi	0x0e, 0	; 14
     312:	08 95       	ret

00000314 <tcnt0_init>:
//Initalizes timer/counter0 (TCNT0). TCNT0 is running in async mode
//with external 32khz crystal.  Runs in normal mode with no prescaling.
//Interrupt occurs at overflow 0xFF.
//
void tcnt0_init(void){
    ASSR   |=  (1 << AS0); //ext osc TOSC
     314:	80 b7       	in	r24, 0x30	; 48
     316:	88 60       	ori	r24, 0x08	; 8
     318:	80 bf       	out	0x30, r24	; 48
    TIMSK  |=  (1 << TOIE0); //enable TCNT0 overflow interrupt
     31a:	87 b7       	in	r24, 0x37	; 55
     31c:	81 60       	ori	r24, 0x01	; 1
     31e:	87 bf       	out	0x37, r24	; 55
    TCCR0  |=  (1 << CS00); //normal mode, no prescale
     320:	83 b7       	in	r24, 0x33	; 51
     322:	81 60       	ori	r24, 0x01	; 1
     324:	83 bf       	out	0x33, r24	; 51
     326:	08 95       	ret

00000328 <encoderRead>:
    uint8_t new_A = -1;
    uint8_t new_B = -1;
    static uint8_t count = 0; 
    uint8_t return_val, a, b, a_index, b_index; 

    a = (knob == 0) ? 1 : 4; // where the position of a is
     328:	61 11       	cpse	r22, r1
     32a:	24 c0       	rjmp	.+72     	; 0x374 <encoderRead+0x4c>
     32c:	a1 e0       	ldi	r26, 0x01	; 1
     32e:	b0 e0       	ldi	r27, 0x00	; 0
     330:	e0 e0       	ldi	r30, 0x00	; 0
     332:	f0 e0       	ldi	r31, 0x00	; 0
    b = (knob == 0) ? 2 : 8; // where the position of b is
     334:	22 e0       	ldi	r18, 0x02	; 2
    uint8_t new_A = -1;
    uint8_t new_B = -1;
    static uint8_t count = 0; 
    uint8_t return_val, a, b, a_index, b_index; 

    a = (knob == 0) ? 1 : 4; // where the position of a is
     336:	91 e0       	ldi	r25, 0x01	; 1
    b = (knob == 0) ? 2 : 8; // where the position of b is

    a_index = (knob == 0) ? 0 : 2;
    b_index = (knob == 0) ? 1 : 3;
    
    new_A = (data & a) ? 1 : 0; // most LSB
     338:	98 23       	and	r25, r24
     33a:	31 e0       	ldi	r19, 0x01	; 1
     33c:	09 f4       	brne	.+2      	; 0x340 <encoderRead+0x18>
     33e:	30 e0       	ldi	r19, 0x00	; 0
    new_B = (data & b) ? 1 : 0; // 2nd LSB
     340:	82 23       	and	r24, r18
     342:	21 e0       	ldi	r18, 0x01	; 1
     344:	09 f4       	brne	.+2      	; 0x348 <encoderRead+0x20>
     346:	20 e0       	ldi	r18, 0x00	; 0


    return_val = -1; // default return value, no change

    if ((new_A != old_state[a_index]) || (new_B != old_state[b_index])){ // if change occured
     348:	e0 50       	subi	r30, 0x00	; 0
     34a:	ff 4f       	sbci	r31, 0xFF	; 255
     34c:	40 81       	ld	r20, Z
     34e:	a0 50       	subi	r26, 0x00	; 0
     350:	bf 4f       	sbci	r27, 0xFF	; 255
     352:	34 17       	cp	r19, r20
     354:	19 f1       	breq	.+70     	; 0x39c <encoderRead+0x74>
        if((new_A == 0) && (new_B == 0)){
     356:	91 11       	cpse	r25, r1
     358:	14 c0       	rjmp	.+40     	; 0x382 <encoderRead+0x5a>
     35a:	88 23       	and	r24, r24
     35c:	a1 f0       	breq	.+40     	; 0x386 <encoderRead+0x5e>
            else{
                count--;
            }
        }
        else if ((new_A == 0) && (new_B == 1)){
            if (old_state[a_index] == 0){
     35e:	41 11       	cpse	r20, r1
     360:	14 c0       	rjmp	.+40     	; 0x38a <encoderRead+0x62>
    return_val = -1; // default return value, no change

    if ((new_A != old_state[a_index]) || (new_B != old_state[b_index])){ // if change occured
        if((new_A == 0) && (new_B == 0)){
            if (old_state[a_index] == 1){
                count++;
     362:	80 91 18 01 	lds	r24, 0x0118	; 0x800118 <count.1886>
     366:	8f 5f       	subi	r24, 0xFF	; 255
     368:	80 93 18 01 	sts	0x0118, r24	; 0x800118 <count.1886>
    
    new_A = (data & a) ? 1 : 0; // most LSB
    new_B = (data & b) ? 1 : 0; // 2nd LSB


    return_val = -1; // default return value, no change
     36c:	8f ef       	ldi	r24, 0xFF	; 255
            else{ 
                count--;
            }
        }

        old_state[a_index] = new_A; // save what are now old values
     36e:	30 83       	st	Z, r19
        old_state[b_index] = new_B;
     370:	2c 93       	st	X, r18
     372:	08 95       	ret
     374:	a3 e0       	ldi	r26, 0x03	; 3
     376:	b0 e0       	ldi	r27, 0x00	; 0
     378:	e2 e0       	ldi	r30, 0x02	; 2
     37a:	f0 e0       	ldi	r31, 0x00	; 0
    uint8_t new_B = -1;
    static uint8_t count = 0; 
    uint8_t return_val, a, b, a_index, b_index; 

    a = (knob == 0) ? 1 : 4; // where the position of a is
    b = (knob == 0) ? 2 : 8; // where the position of b is
     37c:	28 e0       	ldi	r18, 0x08	; 8
    uint8_t new_A = -1;
    uint8_t new_B = -1;
    static uint8_t count = 0; 
    uint8_t return_val, a, b, a_index, b_index; 

    a = (knob == 0) ? 1 : 4; // where the position of a is
     37e:	94 e0       	ldi	r25, 0x04	; 4
     380:	db cf       	rjmp	.-74     	; 0x338 <encoderRead+0x10>
            }
            else{
                count--;     
            }
        }
        else if ((new_A == 1) && (new_B == 1)){ // detent position
     382:	81 11       	cpse	r24, r1
     384:	10 c0       	rjmp	.+32     	; 0x3a6 <encoderRead+0x7e>

    return_val = -1; // default return value, no change

    if ((new_A != old_state[a_index]) || (new_B != old_state[b_index])){ // if change occured
        if((new_A == 0) && (new_B == 0)){
            if (old_state[a_index] == 1){
     386:	41 30       	cpi	r20, 0x01	; 1
     388:	61 f3       	breq	.-40     	; 0x362 <encoderRead+0x3a>
                count++;
            }
            else{
                count--;
     38a:	80 91 18 01 	lds	r24, 0x0118	; 0x800118 <count.1886>
     38e:	81 50       	subi	r24, 0x01	; 1
     390:	80 93 18 01 	sts	0x0118, r24	; 0x800118 <count.1886>
    
    new_A = (data & a) ? 1 : 0; // most LSB
    new_B = (data & b) ? 1 : 0; // 2nd LSB


    return_val = -1; // default return value, no change
     394:	8f ef       	ldi	r24, 0xFF	; 255
            else{ 
                count--;
            }
        }

        old_state[a_index] = new_A; // save what are now old values
     396:	30 83       	st	Z, r19
        old_state[b_index] = new_B;
     398:	2c 93       	st	X, r18
     39a:	08 95       	ret
    new_B = (data & b) ? 1 : 0; // 2nd LSB


    return_val = -1; // default return value, no change

    if ((new_A != old_state[a_index]) || (new_B != old_state[b_index])){ // if change occured
     39c:	5c 91       	ld	r21, X
     39e:	25 13       	cpse	r18, r21
     3a0:	da cf       	rjmp	.-76     	; 0x356 <encoderRead+0x2e>
    
    new_A = (data & a) ? 1 : 0; // most LSB
    new_B = (data & b) ? 1 : 0; // 2nd LSB


    return_val = -1; // default return value, no change
     3a2:	8f ef       	ldi	r24, 0xFF	; 255
        old_state[b_index] = new_B;

    } // if changed occured
    // if return value is still -1 then nothing happen
    return (return_val); // return coder state
}
     3a4:	08 95       	ret
            else{
                count--;     
            }
        }
        else if ((new_A == 1) && (new_B == 1)){ // detent position
            if (old_state[a_index] == 0){ // one direction 
     3a6:	41 11       	cpse	r20, r1
     3a8:	0b c0       	rjmp	.+22     	; 0x3c0 <encoderRead+0x98>
                if (count == 3){
     3aa:	81 e0       	ldi	r24, 0x01	; 1
     3ac:	90 91 18 01 	lds	r25, 0x0118	; 0x800118 <count.1886>
     3b0:	93 30       	cpi	r25, 0x03	; 3
     3b2:	41 f0       	breq	.+16     	; 0x3c4 <encoderRead+0x9c>
     3b4:	81 95       	neg	r24
                if (count == -3){
                    return_val = 1;
   
                }
            }
            count = 0; // count is always reset in detent position
     3b6:	10 92 18 01 	sts	0x0118, r1	; 0x800118 <count.1886>
            else{ 
                count--;
            }
        }

        old_state[a_index] = new_A; // save what are now old values
     3ba:	30 83       	st	Z, r19
        old_state[b_index] = new_B;
     3bc:	2c 93       	st	X, r18
     3be:	08 95       	ret
    
    new_A = (data & a) ? 1 : 0; // most LSB
    new_B = (data & b) ? 1 : 0; // 2nd LSB


    return_val = -1; // default return value, no change
     3c0:	8f ef       	ldi	r24, 0xFF	; 255
     3c2:	f9 cf       	rjmp	.-14     	; 0x3b6 <encoderRead+0x8e>
                count--;     
            }
        }
        else if ((new_A == 1) && (new_B == 1)){ // detent position
            if (old_state[a_index] == 0){ // one direction 
                if (count == 3){
     3c4:	80 e0       	ldi	r24, 0x00	; 0
     3c6:	f6 cf       	rjmp	.-20     	; 0x3b4 <encoderRead+0x8c>

000003c8 <barGraph>:
//                                  barGraph
// Set the mode on the bar graph. 
/******************************************************************************/
void barGraph(){
    
    SPDR = barGraphDisplay;
     3c8:	80 91 35 01 	lds	r24, 0x0135	; 0x800135 <barGraphDisplay>
     3cc:	8f b9       	out	0x0f, r24	; 15
    while (bit_is_clear(SPSR,SPIF)){}               //wait till data sent out (while loop)
     3ce:	77 9b       	sbis	0x0e, 7	; 14
     3d0:	fe cf       	rjmp	.-4      	; 0x3ce <barGraph+0x6>
    PORTD |= (1 << PORTD2);          //HC595 output reg - rising edge...
     3d2:	92 9a       	sbi	0x12, 2	; 18
    PORTD &= (0 << PORTD2);          //and falling edge
     3d4:	82 b3       	in	r24, 0x12	; 18
     3d6:	12 ba       	out	0x12, r1	; 18
     3d8:	08 95       	ret

000003da <alarmDisplay>:
//                                 alarmDisplay
// Display "ALARM" on the display if the alarm flag is on.
// Otherwise clear the screen. 
/******************************************************************************/

void alarmDisplay(){
     3da:	cf 93       	push	r28
     3dc:	df 93       	push	r29
     3de:	cd b7       	in	r28, 0x3d	; 61
     3e0:	de b7       	in	r29, 0x3e	; 62
     3e2:	60 97       	sbiw	r28, 0x10	; 16
     3e4:	0f b6       	in	r0, 0x3f	; 63
     3e6:	f8 94       	cli
     3e8:	de bf       	out	0x3e, r29	; 62
     3ea:	0f be       	out	0x3f, r0	; 63
     3ec:	cd bf       	out	0x3d, r28	; 61
    char lcd_string_array[16] = "     ALARM      ";
     3ee:	80 e1       	ldi	r24, 0x10	; 16
     3f0:	e4 e0       	ldi	r30, 0x04	; 4
     3f2:	f1 e0       	ldi	r31, 0x01	; 1
     3f4:	de 01       	movw	r26, r28
     3f6:	11 96       	adiw	r26, 0x01	; 1
     3f8:	01 90       	ld	r0, Z+
     3fa:	0d 92       	st	X+, r0
     3fc:	8a 95       	dec	r24
     3fe:	e1 f7       	brne	.-8      	; 0x3f8 <alarmDisplay+0x1e>
    if (alarmFlag == 0x1){
     400:	80 91 31 01 	lds	r24, 0x0131	; 0x800131 <alarmFlag>
     404:	81 30       	cpi	r24, 0x01	; 1
     406:	49 f0       	breq	.+18     	; 0x41a <__LOCK_REGION_LENGTH__+0x1a>
        clear_display(); // clear the display 
        string2lcd(lcd_string_array);
    }
    

}
     408:	60 96       	adiw	r28, 0x10	; 16
     40a:	0f b6       	in	r0, 0x3f	; 63
     40c:	f8 94       	cli
     40e:	de bf       	out	0x3e, r29	; 62
     410:	0f be       	out	0x3f, r0	; 63
     412:	cd bf       	out	0x3d, r28	; 61
     414:	df 91       	pop	r29
     416:	cf 91       	pop	r28
     418:	08 95       	ret
/******************************************************************************/

void alarmDisplay(){
    char lcd_string_array[16] = "     ALARM      ";
    if (alarmFlag == 0x1){
        clear_display(); // clear the display 
     41a:	0e 94 03 05 	call	0xa06	; 0xa06 <clear_display>
        string2lcd(lcd_string_array);
     41e:	ce 01       	movw	r24, r28
     420:	01 96       	adiw	r24, 0x01	; 1
     422:	0e 94 83 05 	call	0xb06	; 0xb06 <string2lcd>
    }
    

}
     426:	f0 cf       	rjmp	.-32     	; 0x408 <__LOCK_REGION_LENGTH__+0x8>

00000428 <buttonPress>:
//                                 buttonPress
// Different cases for each button pressed
/******************************************************************************/
void buttonPress(uint8_t button){

    switch (button){
     428:	82 30       	cpi	r24, 0x02	; 2
     42a:	e1 f1       	breq	.+120    	; 0x4a4 <buttonPress+0x7c>
     42c:	98 f4       	brcc	.+38     	; 0x454 <buttonPress+0x2c>
     42e:	88 23       	and	r24, r24
     430:	81 f1       	breq	.+96     	; 0x492 <buttonPress+0x6a>
     432:	81 30       	cpi	r24, 0x01	; 1
     434:	01 f5       	brne	.+64     	; 0x476 <buttonPress+0x4e>
            return;
        }
        case 1:
        {
            // 10 seconds
            timerFlag = 1;
     436:	80 93 32 01 	sts	0x0132, r24	; 0x800132 <timerFlag>
            timer = 10;
     43a:	8a e0       	ldi	r24, 0x0A	; 10
     43c:	90 e0       	ldi	r25, 0x00	; 0
     43e:	90 93 2c 01 	sts	0x012C, r25	; 0x80012c <timer+0x1>
     442:	80 93 2b 01 	sts	0x012B, r24	; 0x80012b <timer>
            barGraphDisplay ^= 1 << 1;
     446:	90 91 35 01 	lds	r25, 0x0135	; 0x800135 <barGraphDisplay>
     44a:	82 e0       	ldi	r24, 0x02	; 2
     44c:	89 27       	eor	r24, r25
     44e:	80 93 35 01 	sts	0x0135, r24	; 0x800135 <barGraphDisplay>
            return;
     452:	08 95       	ret
//                                 buttonPress
// Different cases for each button pressed
/******************************************************************************/
void buttonPress(uint8_t button){

    switch (button){
     454:	86 30       	cpi	r24, 0x06	; 6
     456:	81 f0       	breq	.+32     	; 0x478 <buttonPress+0x50>
     458:	87 30       	cpi	r24, 0x07	; 7
     45a:	61 f4       	brne	.+24     	; 0x474 <buttonPress+0x4c>
            return;
        }
        case 7:
        {
            // change hours
            changeHourFlag ^= 1;
     45c:	90 91 2f 01 	lds	r25, 0x012F	; 0x80012f <changeHourFlag>
     460:	81 e0       	ldi	r24, 0x01	; 1
     462:	89 27       	eor	r24, r25
     464:	80 93 2f 01 	sts	0x012F, r24	; 0x80012f <changeHourFlag>
            barGraphDisplay ^= 1 << 7;
     468:	80 91 35 01 	lds	r24, 0x0135	; 0x800135 <barGraphDisplay>
     46c:	80 58       	subi	r24, 0x80	; 128
     46e:	80 93 35 01 	sts	0x0135, r24	; 0x800135 <barGraphDisplay>
     472:	08 95       	ret
     474:	08 95       	ret
     476:	08 95       	ret
            return;
        }
        case 6:
        {
            // change minutes
            changeMinuteFlag ^= 1;
     478:	90 91 30 01 	lds	r25, 0x0130	; 0x800130 <changeMinuteFlag>
     47c:	81 e0       	ldi	r24, 0x01	; 1
     47e:	89 27       	eor	r24, r25
     480:	80 93 30 01 	sts	0x0130, r24	; 0x800130 <changeMinuteFlag>
            barGraphDisplay ^= 1 << 6;
     484:	90 91 35 01 	lds	r25, 0x0135	; 0x800135 <barGraphDisplay>
     488:	80 e4       	ldi	r24, 0x40	; 64
     48a:	89 27       	eor	r24, r25
     48c:	80 93 35 01 	sts	0x0135, r24	; 0x800135 <barGraphDisplay>
            return;
     490:	08 95       	ret

    switch (button){
        case 0:
        {
            // snooze, turn off LCD display
            alarmFlag = 0;
     492:	10 92 31 01 	sts	0x0131, r1	; 0x800131 <alarmFlag>
            barGraphDisplay &= ~(1 << 1); // turn off the timer modes
            barGraphDisplay &= ~(1 << 2); // turn off the timer modes
     496:	80 91 35 01 	lds	r24, 0x0135	; 0x800135 <barGraphDisplay>
     49a:	89 7f       	andi	r24, 0xF9	; 249
     49c:	80 93 35 01 	sts	0x0135, r24	; 0x800135 <barGraphDisplay>
            clear_display();
     4a0:	0c 94 03 05 	jmp	0xa06	; 0xa06 <clear_display>
            return;
        }
        case 2:
        {
            // 10 minutes
            timerFlag = 1;
     4a4:	81 e0       	ldi	r24, 0x01	; 1
     4a6:	80 93 32 01 	sts	0x0132, r24	; 0x800132 <timerFlag>
            timer = 10 * 60;
     4aa:	88 e5       	ldi	r24, 0x58	; 88
     4ac:	92 e0       	ldi	r25, 0x02	; 2
     4ae:	90 93 2c 01 	sts	0x012C, r25	; 0x80012c <timer+0x1>
     4b2:	80 93 2b 01 	sts	0x012B, r24	; 0x80012b <timer>
            barGraphDisplay ^= 1 << 2;
     4b6:	90 91 35 01 	lds	r25, 0x0135	; 0x800135 <barGraphDisplay>
     4ba:	84 e0       	ldi	r24, 0x04	; 4
     4bc:	89 27       	eor	r24, r25
     4be:	80 93 35 01 	sts	0x0135, r24	; 0x800135 <barGraphDisplay>
            return;
     4c2:	08 95       	ret

000004c4 <__vector_16>:
// and when the overflow flag for timer counter 0 it set.
// This fucntions checks the push buttons to see which buttons were pressed
// then set it in its correct mode.
// Afterwards checks the encoder to see where it is.
/******************************************************************************/
ISR(TIMER0_OVF_vect){
     4c4:	1f 92       	push	r1
     4c6:	0f 92       	push	r0
     4c8:	0f b6       	in	r0, 0x3f	; 63
     4ca:	0f 92       	push	r0
     4cc:	11 24       	eor	r1, r1
     4ce:	0b b6       	in	r0, 0x3b	; 59
     4d0:	0f 92       	push	r0
     4d2:	df 92       	push	r13
     4d4:	ef 92       	push	r14
     4d6:	ff 92       	push	r15
     4d8:	0f 93       	push	r16
     4da:	1f 93       	push	r17
     4dc:	2f 93       	push	r18
     4de:	3f 93       	push	r19
     4e0:	4f 93       	push	r20
     4e2:	5f 93       	push	r21
     4e4:	6f 93       	push	r22
     4e6:	7f 93       	push	r23
     4e8:	8f 93       	push	r24
     4ea:	9f 93       	push	r25
     4ec:	af 93       	push	r26
     4ee:	bf 93       	push	r27
     4f0:	cf 93       	push	r28
     4f2:	df 93       	push	r29
     4f4:	ef 93       	push	r30
     4f6:	ff 93       	push	r31
    static uint8_t count = 0, seconds;
    //insert loop demake lay for debounce

    // checking the push buttons 
    // for loop for each phase of the digit
    PORTB |= TRI_BUFFER;
     4f8:	88 b3       	in	r24, 0x18	; 24
     4fa:	80 67       	ori	r24, 0x70	; 112
     4fc:	88 bb       	out	0x18, r24	; 24
     4fe:	0c e0       	ldi	r16, 0x0C	; 12
     500:	10 e0       	ldi	r17, 0x00	; 0

    for (i = 0; i < 12; i++){ // for the debounce
        
        //make PORTA an input port with pullups
        DDRA = 0x00;  // set port A as inputs
        PORTA = 0xFF; // set port A as pull ups
     502:	dd 24       	eor	r13, r13
     504:	da 94       	dec	r13
    PORTB |= TRI_BUFFER;

    for (i = 0; i < 12; i++){ // for the debounce
        
        //make PORTA an input port with pullups
        DDRA = 0x00;  // set port A as inputs
     506:	1a ba       	out	0x1a, r1	; 26
        PORTA = 0xFF; // set port A as pull ups
     508:	db ba       	out	0x1b, r13	; 27
     50a:	9b e1       	ldi	r25, 0x1B	; 27
     50c:	e9 2e       	mov	r14, r25
     50e:	91 e0       	ldi	r25, 0x01	; 1
     510:	f9 2e       	mov	r15, r25
        
        // checking what button is being pressed
        for (j = 0; j < 8; j++){
     512:	c0 e0       	ldi	r28, 0x00	; 0
     514:	d0 e0       	ldi	r29, 0x00	; 0
     516:	04 c0       	rjmp	.+8      	; 0x520 <__vector_16+0x5c>
     518:	21 96       	adiw	r28, 0x01	; 1
     51a:	c8 30       	cpi	r28, 0x08	; 8
     51c:	d1 05       	cpc	r29, r1
     51e:	09 f1       	breq	.+66     	; 0x562 <__vector_16+0x9e>
    // bit_is_clear: test whether but but in IO register sfr is clear. This will return non zero
    // if the but is clear, and 0 if the bit is set
    // handling multiple inputs
    // https://www.avrfreaks.net/sites/default/files/debouncing.pdf'

    state[button] = (state[button] << 1) | (!bit_is_clear(PINA, button)) | 0xE000; // when the second button is pressed
     520:	99 b3       	in	r25, 0x19	; 25
     522:	f7 01       	movw	r30, r14
     524:	20 81       	ld	r18, Z
     526:	31 81       	ldd	r19, Z+1	; 0x01
     528:	22 0f       	add	r18, r18
     52a:	33 1f       	adc	r19, r19
     52c:	30 6e       	ori	r19, 0xE0	; 224
     52e:	89 2f       	mov	r24, r25
     530:	90 e0       	ldi	r25, 0x00	; 0
     532:	0c 2e       	mov	r0, r28
     534:	02 c0       	rjmp	.+4      	; 0x53a <__vector_16+0x76>
     536:	95 95       	asr	r25
     538:	87 95       	ror	r24
     53a:	0a 94       	dec	r0
     53c:	e2 f7       	brpl	.-8      	; 0x536 <__vector_16+0x72>
     53e:	81 70       	andi	r24, 0x01	; 1
     540:	99 27       	eor	r25, r25
     542:	82 2b       	or	r24, r18
     544:	93 2b       	or	r25, r19
     546:	f7 01       	movw	r30, r14
     548:	81 93       	st	Z+, r24
     54a:	91 93       	st	Z+, r25
     54c:	7f 01       	movw	r14, r30

    if (state[button] == 0xF000)
     54e:	81 15       	cp	r24, r1
     550:	90 4f       	sbci	r25, 0xF0	; 240
     552:	11 f7       	brne	.-60     	; 0x518 <__vector_16+0x54>
        PORTA = 0xFF; // set port A as pull ups
        
        // checking what button is being pressed
        for (j = 0; j < 8; j++){
            if (chk_buttons(j))
                buttonPress(j);
     554:	8c 2f       	mov	r24, r28
     556:	0e 94 14 02 	call	0x428	; 0x428 <buttonPress>
        //make PORTA an input port with pullups
        DDRA = 0x00;  // set port A as inputs
        PORTA = 0xFF; // set port A as pull ups
        
        // checking what button is being pressed
        for (j = 0; j < 8; j++){
     55a:	21 96       	adiw	r28, 0x01	; 1
     55c:	c8 30       	cpi	r28, 0x08	; 8
     55e:	d1 05       	cpc	r29, r1
     560:	f9 f6       	brne	.-66     	; 0x520 <__vector_16+0x5c>
     562:	01 50       	subi	r16, 0x01	; 1
     564:	11 09       	sbc	r17, r1

    // checking the push buttons 
    // for loop for each phase of the digit
    PORTB |= TRI_BUFFER;

    for (i = 0; i < 12; i++){ // for the debounce
     566:	79 f6       	brne	.-98     	; 0x506 <__vector_16+0x42>
                buttonPress(j);
        }
            
        
    }
    PORTB &= ~(TRI_BUFFER); // turn off the tri state buffer 
     568:	88 b3       	in	r24, 0x18	; 24
     56a:	8f 78       	andi	r24, 0x8F	; 143
     56c:	88 bb       	out	0x18, r24	; 24

    // reading each knob
    uint8_t enc1 = encoderRead(data, 0);
     56e:	c0 91 34 01 	lds	r28, 0x0134	; 0x800134 <data>
     572:	60 e0       	ldi	r22, 0x00	; 0
     574:	8c 2f       	mov	r24, r28
     576:	0e 94 94 01 	call	0x328	; 0x328 <encoderRead>
     57a:	d8 2f       	mov	r29, r24
    uint8_t enc2 = encoderRead(data, 1);
     57c:	61 e0       	ldi	r22, 0x01	; 1
     57e:	8c 2f       	mov	r24, r28
     580:	0e 94 94 01 	call	0x328	; 0x328 <encoderRead>

    // each case of what the knob or buttons will be
        if(enc1 == 0 || enc2 == 0){
     584:	dd 23       	and	r29, r29
     586:	11 f0       	breq	.+4      	; 0x58c <__vector_16+0xc8>
     588:	81 11       	cpse	r24, r1
     58a:	75 c0       	rjmp	.+234    	; 0x676 <__vector_16+0x1b2>
            // ccw 
            //current_num -= 1;
            if (changeMinuteFlag == 1 && changeHourFlag == 0){
     58c:	90 91 30 01 	lds	r25, 0x0130	; 0x800130 <changeMinuteFlag>
     590:	20 91 2f 01 	lds	r18, 0x012F	; 0x80012f <changeHourFlag>
     594:	91 30       	cpi	r25, 0x01	; 1
     596:	09 f4       	brne	.+2      	; 0x59a <__vector_16+0xd6>
     598:	80 c0       	rjmp	.+256    	; 0x69a <__vector_16+0x1d6>
                minutes--;
                if (minutes == 255) // since its unsign 255 = -1
                    minutes = 59;

            }
            if (changeHourFlag ==1 && changeMinuteFlag == 0){
     59a:	21 30       	cpi	r18, 0x01	; 1
     59c:	09 f4       	brne	.+2      	; 0x5a0 <__vector_16+0xdc>
     59e:	9b c0       	rjmp	.+310    	; 0x6d6 <__vector_16+0x212>
                    hours == 23;
            }

        }
            
        if (enc1 == 1 || enc2 == 1){
     5a0:	d1 30       	cpi	r29, 0x01	; 1
     5a2:	19 f0       	breq	.+6      	; 0x5aa <__vector_16+0xe6>
     5a4:	81 30       	cpi	r24, 0x01	; 1
     5a6:	09 f4       	brne	.+2      	; 0x5aa <__vector_16+0xe6>
     5a8:	69 c0       	rjmp	.+210    	; 0x67c <__vector_16+0x1b8>

        }


    // add a counter to determine one second 
    count++;
     5aa:	80 91 1a 01 	lds	r24, 0x011A	; 0x80011a <count.1869>
     5ae:	8f 5f       	subi	r24, 0xFF	; 255
     5b0:	80 93 1a 01 	sts	0x011A, r24	; 0x80011a <count.1869>
    if ((count % 128) == 0){
     5b4:	8f 77       	andi	r24, 0x7F	; 127
     5b6:	09 f0       	breq	.+2      	; 0x5ba <__vector_16+0xf6>
     5b8:	44 c0       	rjmp	.+136    	; 0x642 <__vector_16+0x17e>
        // 1 second has past

        // timer
        if (timerFlag == 0x1){
     5ba:	80 91 32 01 	lds	r24, 0x0132	; 0x800132 <timerFlag>
     5be:	81 30       	cpi	r24, 0x01	; 1
     5c0:	09 f4       	brne	.+2      	; 0x5c4 <__vector_16+0x100>
     5c2:	77 c0       	rjmp	.+238    	; 0x6b2 <__vector_16+0x1ee>
            }
        }


        // clock
        colonDisplay ^= 0x1; // blinking
     5c4:	90 91 33 01 	lds	r25, 0x0133	; 0x800133 <colonDisplay>
     5c8:	81 e0       	ldi	r24, 0x01	; 1
     5ca:	89 27       	eor	r24, r25
     5cc:	80 93 33 01 	sts	0x0133, r24	; 0x800133 <colonDisplay>
        seconds++;
     5d0:	80 91 19 01 	lds	r24, 0x0119	; 0x800119 <seconds.1870>
     5d4:	8f 5f       	subi	r24, 0xFF	; 255
     5d6:	80 93 19 01 	sts	0x0119, r24	; 0x800119 <seconds.1870>
        
        if ((seconds % 60) == 0){
     5da:	99 e8       	ldi	r25, 0x89	; 137
     5dc:	89 9f       	mul	r24, r25
     5de:	21 2d       	mov	r18, r1
     5e0:	11 24       	eor	r1, r1
     5e2:	22 95       	swap	r18
     5e4:	26 95       	lsr	r18
     5e6:	27 70       	andi	r18, 0x07	; 7
     5e8:	3c e3       	ldi	r19, 0x3C	; 60
     5ea:	23 9f       	mul	r18, r19
     5ec:	80 19       	sub	r24, r0
     5ee:	11 24       	eor	r1, r1
     5f0:	81 11       	cpse	r24, r1
     5f2:	27 c0       	rjmp	.+78     	; 0x642 <__vector_16+0x17e>
            minutes++;
     5f4:	80 91 2e 01 	lds	r24, 0x012E	; 0x80012e <minutes>
     5f8:	8f 5f       	subi	r24, 0xFF	; 255
     5fa:	80 93 2e 01 	sts	0x012E, r24	; 0x80012e <minutes>
            seconds = 0;
     5fe:	10 92 19 01 	sts	0x0119, r1	; 0x800119 <seconds.1870>
            if ((minutes % 60) == 0){
     602:	89 9f       	mul	r24, r25
     604:	91 2d       	mov	r25, r1
     606:	11 24       	eor	r1, r1
     608:	92 95       	swap	r25
     60a:	96 95       	lsr	r25
     60c:	97 70       	andi	r25, 0x07	; 7
     60e:	93 9f       	mul	r25, r19
     610:	80 19       	sub	r24, r0
     612:	11 24       	eor	r1, r1
     614:	81 11       	cpse	r24, r1
     616:	15 c0       	rjmp	.+42     	; 0x642 <__vector_16+0x17e>
                hours++;
     618:	80 91 2d 01 	lds	r24, 0x012D	; 0x80012d <hours>
     61c:	8f 5f       	subi	r24, 0xFF	; 255
     61e:	80 93 2d 01 	sts	0x012D, r24	; 0x80012d <hours>
                minutes = 0;
     622:	10 92 2e 01 	sts	0x012E, r1	; 0x80012e <minutes>
                if (hours % 24 == 0)
     626:	9b ea       	ldi	r25, 0xAB	; 171
     628:	89 9f       	mul	r24, r25
     62a:	91 2d       	mov	r25, r1
     62c:	11 24       	eor	r1, r1
     62e:	92 95       	swap	r25
     630:	9f 70       	andi	r25, 0x0F	; 15
     632:	28 e1       	ldi	r18, 0x18	; 24
     634:	92 9f       	mul	r25, r18
     636:	80 19       	sub	r24, r0
     638:	11 24       	eor	r1, r1
     63a:	81 11       	cpse	r24, r1
     63c:	02 c0       	rjmp	.+4      	; 0x642 <__vector_16+0x17e>
                    hours = 0;
     63e:	10 92 2d 01 	sts	0x012D, r1	; 0x80012d <hours>
            }
        }
    }
    
}
     642:	ff 91       	pop	r31
     644:	ef 91       	pop	r30
     646:	df 91       	pop	r29
     648:	cf 91       	pop	r28
     64a:	bf 91       	pop	r27
     64c:	af 91       	pop	r26
     64e:	9f 91       	pop	r25
     650:	8f 91       	pop	r24
     652:	7f 91       	pop	r23
     654:	6f 91       	pop	r22
     656:	5f 91       	pop	r21
     658:	4f 91       	pop	r20
     65a:	3f 91       	pop	r19
     65c:	2f 91       	pop	r18
     65e:	1f 91       	pop	r17
     660:	0f 91       	pop	r16
     662:	ff 90       	pop	r15
     664:	ef 90       	pop	r14
     666:	df 90       	pop	r13
     668:	0f 90       	pop	r0
     66a:	0b be       	out	0x3b, r0	; 59
     66c:	0f 90       	pop	r0
     66e:	0f be       	out	0x3f, r0	; 63
     670:	0f 90       	pop	r0
     672:	1f 90       	pop	r1
     674:	18 95       	reti
                    hours == 23;
            }

        }
            
        if (enc1 == 1 || enc2 == 1){
     676:	d1 30       	cpi	r29, 0x01	; 1
     678:	09 f0       	breq	.+2      	; 0x67c <__vector_16+0x1b8>
     67a:	94 cf       	rjmp	.-216    	; 0x5a4 <__vector_16+0xe0>
            // cw 
            // current_num += 1;
            if (changeMinuteFlag == 1 && changeHourFlag == 0){
     67c:	80 91 30 01 	lds	r24, 0x0130	; 0x800130 <changeMinuteFlag>
     680:	81 30       	cpi	r24, 0x01	; 1
     682:	09 f0       	breq	.+2      	; 0x686 <__vector_16+0x1c2>
     684:	92 cf       	rjmp	.-220    	; 0x5aa <__vector_16+0xe6>
     686:	20 91 2f 01 	lds	r18, 0x012F	; 0x80012f <changeHourFlag>
     68a:	21 11       	cpse	r18, r1
     68c:	8e cf       	rjmp	.-228    	; 0x5aa <__vector_16+0xe6>
                // change minutes
                minutes--;
     68e:	80 91 2e 01 	lds	r24, 0x012E	; 0x80012e <minutes>
     692:	81 50       	subi	r24, 0x01	; 1
     694:	80 93 2e 01 	sts	0x012E, r24	; 0x80012e <minutes>
     698:	88 cf       	rjmp	.-240    	; 0x5aa <__vector_16+0xe6>

    // each case of what the knob or buttons will be
        if(enc1 == 0 || enc2 == 0){
            // ccw 
            //current_num -= 1;
            if (changeMinuteFlag == 1 && changeHourFlag == 0){
     69a:	21 11       	cpse	r18, r1
     69c:	06 c0       	rjmp	.+12     	; 0x6aa <__vector_16+0x1e6>
                // change minutes
                minutes--;
     69e:	90 91 2e 01 	lds	r25, 0x012E	; 0x80012e <minutes>
     6a2:	91 50       	subi	r25, 0x01	; 1
     6a4:	18 f1       	brcs	.+70     	; 0x6ec <__vector_16+0x228>
     6a6:	90 93 2e 01 	sts	0x012E, r25	; 0x80012e <minutes>
                    hours == 23;
            }

        }
            
        if (enc1 == 1 || enc2 == 1){
     6aa:	d1 30       	cpi	r29, 0x01	; 1
     6ac:	09 f0       	breq	.+2      	; 0x6b0 <__vector_16+0x1ec>
     6ae:	7a cf       	rjmp	.-268    	; 0x5a4 <__vector_16+0xe0>
     6b0:	ec cf       	rjmp	.-40     	; 0x68a <__vector_16+0x1c6>
        // 1 second has past

        // timer
        if (timerFlag == 0x1){
            // timer on
            timer--;
     6b2:	20 91 2b 01 	lds	r18, 0x012B	; 0x80012b <timer>
     6b6:	30 91 2c 01 	lds	r19, 0x012C	; 0x80012c <timer+0x1>
     6ba:	21 50       	subi	r18, 0x01	; 1
     6bc:	31 09       	sbc	r19, r1
     6be:	30 93 2c 01 	sts	0x012C, r19	; 0x80012c <timer+0x1>
     6c2:	20 93 2b 01 	sts	0x012B, r18	; 0x80012b <timer>
            if (timer == 0){
     6c6:	23 2b       	or	r18, r19
     6c8:	09 f0       	breq	.+2      	; 0x6cc <__vector_16+0x208>
     6ca:	7c cf       	rjmp	.-264    	; 0x5c4 <__vector_16+0x100>
                // timer goes off display alarm 
                alarmFlag = 1; // display alarm
     6cc:	80 93 31 01 	sts	0x0131, r24	; 0x800131 <alarmFlag>
                timerFlag = 0; // turn off timer
     6d0:	10 92 32 01 	sts	0x0132, r1	; 0x800132 <timerFlag>
     6d4:	77 cf       	rjmp	.-274    	; 0x5c4 <__vector_16+0x100>
                minutes--;
                if (minutes == 255) // since its unsign 255 = -1
                    minutes = 59;

            }
            if (changeHourFlag ==1 && changeMinuteFlag == 0){
     6d6:	91 11       	cpse	r25, r1
     6d8:	63 cf       	rjmp	.-314    	; 0x5a0 <__vector_16+0xdc>
                hours--;
     6da:	90 91 2d 01 	lds	r25, 0x012D	; 0x80012d <hours>
     6de:	91 50       	subi	r25, 0x01	; 1
     6e0:	90 93 2d 01 	sts	0x012D, r25	; 0x80012d <hours>
                    hours == 23;
            }

        }
            
        if (enc1 == 1 || enc2 == 1){
     6e4:	d1 30       	cpi	r29, 0x01	; 1
     6e6:	09 f0       	breq	.+2      	; 0x6ea <__vector_16+0x226>
     6e8:	5d cf       	rjmp	.-326    	; 0x5a4 <__vector_16+0xe0>
     6ea:	5f cf       	rjmp	.-322    	; 0x5aa <__vector_16+0xe6>
            //current_num -= 1;
            if (changeMinuteFlag == 1 && changeHourFlag == 0){
                // change minutes
                minutes--;
                if (minutes == 255) // since its unsign 255 = -1
                    minutes = 59;
     6ec:	9b e3       	ldi	r25, 0x3B	; 59
     6ee:	90 93 2e 01 	sts	0x012E, r25	; 0x80012e <minutes>
     6f2:	db cf       	rjmp	.-74     	; 0x6aa <__vector_16+0x1e6>

000006f4 <send_lcd>:
// Commnads that require more time have delays built in for them.
//
void send_lcd(uint8_t cmd_or_char, uint8_t byte){

#if SPI_MODE==1
  SPDR = (cmd_or_char)? 0x01 : 0x00;  //send the proper value for intent
     6f4:	91 e0       	ldi	r25, 0x01	; 1
     6f6:	81 11       	cpse	r24, r1
     6f8:	01 c0       	rjmp	.+2      	; 0x6fc <send_lcd+0x8>
     6fa:	90 e0       	ldi	r25, 0x00	; 0
     6fc:	9f b9       	out	0x0f, r25	; 15
  while (bit_is_clear(SPSR,SPIF)){}   //wait till byte is sent out
     6fe:	77 9b       	sbis	0x0e, 7	; 14
     700:	fe cf       	rjmp	.-4      	; 0x6fe <send_lcd+0xa>
  SPDR = byte;                        //send payload
     702:	6f b9       	out	0x0f, r22	; 15
  while (bit_is_clear(SPSR,SPIF)){}   //wait till byte is sent out
     704:	77 9b       	sbis	0x0e, 7	; 14
     706:	fe cf       	rjmp	.-4      	; 0x704 <send_lcd+0x10>
//pulse width for a 4 Mhz clock.
//TODO: make number of nops executed dependent on F_CPU, not hardcoded
//
void strobe_lcd(void){ 
#if SPI_MODE==1
 PORTF |=  0x08; PORTF &= ~0x08; //toggle port F bit 3, LCD strobe trigger
     708:	80 91 62 00 	lds	r24, 0x0062	; 0x800062 <__TEXT_REGION_LENGTH__+0x7e0062>
     70c:	88 60       	ori	r24, 0x08	; 8
     70e:	80 93 62 00 	sts	0x0062, r24	; 0x800062 <__TEXT_REGION_LENGTH__+0x7e0062>
     712:	80 91 62 00 	lds	r24, 0x0062	; 0x800062 <__TEXT_REGION_LENGTH__+0x7e0062>
     716:	87 7f       	andi	r24, 0xF7	; 247
     718:	80 93 62 00 	sts	0x0062, r24	; 0x800062 <__TEXT_REGION_LENGTH__+0x7e0062>
     71c:	08 95       	ret

0000071e <refresh_lcd>:
//
void refresh_lcd(char lcd_string_array[]) {

  static uint8_t i=0;           // index into string array 

 send_lcd(CHAR_BYTE,lcd_string_array[i]);
     71e:	20 91 36 01 	lds	r18, 0x0136	; 0x800136 <i.2094>
     722:	82 0f       	add	r24, r18
     724:	91 1d       	adc	r25, r1
     726:	fc 01       	movw	r30, r24
     728:	80 81       	ld	r24, Z
// Commnads that require more time have delays built in for them.
//
void send_lcd(uint8_t cmd_or_char, uint8_t byte){

#if SPI_MODE==1
  SPDR = (cmd_or_char)? 0x01 : 0x00;  //send the proper value for intent
     72a:	91 e0       	ldi	r25, 0x01	; 1
     72c:	9f b9       	out	0x0f, r25	; 15
  while (bit_is_clear(SPSR,SPIF)){}   //wait till byte is sent out
     72e:	77 9b       	sbis	0x0e, 7	; 14
     730:	fe cf       	rjmp	.-4      	; 0x72e <refresh_lcd+0x10>
  SPDR = byte;                        //send payload
     732:	8f b9       	out	0x0f, r24	; 15
  while (bit_is_clear(SPSR,SPIF)){}   //wait till byte is sent out
     734:	77 9b       	sbis	0x0e, 7	; 14
     736:	fe cf       	rjmp	.-4      	; 0x734 <refresh_lcd+0x16>
//pulse width for a 4 Mhz clock.
//TODO: make number of nops executed dependent on F_CPU, not hardcoded
//
void strobe_lcd(void){ 
#if SPI_MODE==1
 PORTF |=  0x08; PORTF &= ~0x08; //toggle port F bit 3, LCD strobe trigger
     738:	80 91 62 00 	lds	r24, 0x0062	; 0x800062 <__TEXT_REGION_LENGTH__+0x7e0062>
     73c:	88 60       	ori	r24, 0x08	; 8
     73e:	80 93 62 00 	sts	0x0062, r24	; 0x800062 <__TEXT_REGION_LENGTH__+0x7e0062>
     742:	80 91 62 00 	lds	r24, 0x0062	; 0x800062 <__TEXT_REGION_LENGTH__+0x7e0062>
     746:	87 7f       	andi	r24, 0xF7	; 247
     748:	80 93 62 00 	sts	0x0062, r24	; 0x800062 <__TEXT_REGION_LENGTH__+0x7e0062>
void refresh_lcd(char lcd_string_array[]) {

  static uint8_t i=0;           // index into string array 

 send_lcd(CHAR_BYTE,lcd_string_array[i]);
 i++;   //increment to next character
     74c:	80 91 36 01 	lds	r24, 0x0136	; 0x800136 <i.2094>
     750:	8f 5f       	subi	r24, 0xFF	; 255
     752:	80 93 36 01 	sts	0x0136, r24	; 0x800136 <i.2094>
 //delays are inserted to allow character to be written before moving
 //the cursor to the next line.
 if(i == 16){_delay_us(40); line2_col1();      } //goto line 2, 1st char 
     756:	80 31       	cpi	r24, 0x10	; 16
     758:	d9 f0       	breq	.+54     	; 0x790 <refresh_lcd+0x72>
 if(i == 32){_delay_us(40); line1_col1(); i=0; } //goto line 1, 1st char 
     75a:	80 32       	cpi	r24, 0x20	; 32
     75c:	09 f0       	breq	.+2      	; 0x760 <refresh_lcd+0x42>
     75e:	08 95       	ret
	#else
		//round up by default
		__ticks_dc = (uint32_t)(ceil(fabs(__tmp)));
	#endif

	__builtin_avr_delay_cycles(__ticks_dc);
     760:	85 ed       	ldi	r24, 0xD5	; 213
     762:	8a 95       	dec	r24
     764:	f1 f7       	brne	.-4      	; 0x762 <refresh_lcd+0x44>
     766:	00 00       	nop
// Commnads that require more time have delays built in for them.
//
void send_lcd(uint8_t cmd_or_char, uint8_t byte){

#if SPI_MODE==1
  SPDR = (cmd_or_char)? 0x01 : 0x00;  //send the proper value for intent
     768:	1f b8       	out	0x0f, r1	; 15
  while (bit_is_clear(SPSR,SPIF)){}   //wait till byte is sent out
     76a:	77 9b       	sbis	0x0e, 7	; 14
     76c:	fe cf       	rjmp	.-4      	; 0x76a <refresh_lcd+0x4c>
  SPDR = byte;                        //send payload
     76e:	80 e8       	ldi	r24, 0x80	; 128
     770:	8f b9       	out	0x0f, r24	; 15
  while (bit_is_clear(SPSR,SPIF)){}   //wait till byte is sent out
     772:	77 9b       	sbis	0x0e, 7	; 14
     774:	fe cf       	rjmp	.-4      	; 0x772 <refresh_lcd+0x54>
//pulse width for a 4 Mhz clock.
//TODO: make number of nops executed dependent on F_CPU, not hardcoded
//
void strobe_lcd(void){ 
#if SPI_MODE==1
 PORTF |=  0x08; PORTF &= ~0x08; //toggle port F bit 3, LCD strobe trigger
     776:	80 91 62 00 	lds	r24, 0x0062	; 0x800062 <__TEXT_REGION_LENGTH__+0x7e0062>
     77a:	88 60       	ori	r24, 0x08	; 8
     77c:	80 93 62 00 	sts	0x0062, r24	; 0x800062 <__TEXT_REGION_LENGTH__+0x7e0062>
     780:	80 91 62 00 	lds	r24, 0x0062	; 0x800062 <__TEXT_REGION_LENGTH__+0x7e0062>
     784:	87 7f       	andi	r24, 0xF7	; 247
     786:	80 93 62 00 	sts	0x0062, r24	; 0x800062 <__TEXT_REGION_LENGTH__+0x7e0062>
 send_lcd(CHAR_BYTE,lcd_string_array[i]);
 i++;   //increment to next character
 //delays are inserted to allow character to be written before moving
 //the cursor to the next line.
 if(i == 16){_delay_us(40); line2_col1();      } //goto line 2, 1st char 
 if(i == 32){_delay_us(40); line1_col1(); i=0; } //goto line 1, 1st char 
     78a:	10 92 36 01 	sts	0x0136, r1	; 0x800136 <i.2094>
     78e:	08 95       	ret
     790:	f5 ed       	ldi	r31, 0xD5	; 213
     792:	fa 95       	dec	r31
     794:	f1 f7       	brne	.-4      	; 0x792 <refresh_lcd+0x74>
     796:	00 00       	nop
// Commnads that require more time have delays built in for them.
//
void send_lcd(uint8_t cmd_or_char, uint8_t byte){

#if SPI_MODE==1
  SPDR = (cmd_or_char)? 0x01 : 0x00;  //send the proper value for intent
     798:	1f b8       	out	0x0f, r1	; 15
  while (bit_is_clear(SPSR,SPIF)){}   //wait till byte is sent out
     79a:	77 9b       	sbis	0x0e, 7	; 14
     79c:	fe cf       	rjmp	.-4      	; 0x79a <refresh_lcd+0x7c>
  SPDR = byte;                        //send payload
     79e:	80 ec       	ldi	r24, 0xC0	; 192
     7a0:	8f b9       	out	0x0f, r24	; 15
  while (bit_is_clear(SPSR,SPIF)){}   //wait till byte is sent out
     7a2:	77 9b       	sbis	0x0e, 7	; 14
     7a4:	fe cf       	rjmp	.-4      	; 0x7a2 <refresh_lcd+0x84>
//pulse width for a 4 Mhz clock.
//TODO: make number of nops executed dependent on F_CPU, not hardcoded
//
void strobe_lcd(void){ 
#if SPI_MODE==1
 PORTF |=  0x08; PORTF &= ~0x08; //toggle port F bit 3, LCD strobe trigger
     7a6:	80 91 62 00 	lds	r24, 0x0062	; 0x800062 <__TEXT_REGION_LENGTH__+0x7e0062>
     7aa:	88 60       	ori	r24, 0x08	; 8
     7ac:	80 93 62 00 	sts	0x0062, r24	; 0x800062 <__TEXT_REGION_LENGTH__+0x7e0062>
     7b0:	80 91 62 00 	lds	r24, 0x0062	; 0x800062 <__TEXT_REGION_LENGTH__+0x7e0062>
     7b4:	87 7f       	andi	r24, 0xF7	; 247
     7b6:	80 93 62 00 	sts	0x0062, r24	; 0x800062 <__TEXT_REGION_LENGTH__+0x7e0062>
     7ba:	80 91 36 01 	lds	r24, 0x0136	; 0x800136 <i.2094>
     7be:	cd cf       	rjmp	.-102    	; 0x75a <refresh_lcd+0x3c>

000007c0 <set_custom_character>:
//address, such as send_lcd(CHAR_BYTE, 0x01, 1) or it can be insteretd into a string 
//via a forward slash escape as in string2lcd("this is my music note \1")

void set_custom_character(uint8_t data[], uint8_t address){
    uint8_t i;
    send_lcd(CMD_BYTE, 0x40 + (address << 3)); _delay_us(40);  //only needs 37uS
     7c0:	66 0f       	add	r22, r22
     7c2:	66 0f       	add	r22, r22
     7c4:	66 0f       	add	r22, r22
     7c6:	60 5c       	subi	r22, 0xC0	; 192
// Commnads that require more time have delays built in for them.
//
void send_lcd(uint8_t cmd_or_char, uint8_t byte){

#if SPI_MODE==1
  SPDR = (cmd_or_char)? 0x01 : 0x00;  //send the proper value for intent
     7c8:	1f b8       	out	0x0f, r1	; 15
  while (bit_is_clear(SPSR,SPIF)){}   //wait till byte is sent out
     7ca:	77 9b       	sbis	0x0e, 7	; 14
     7cc:	fe cf       	rjmp	.-4      	; 0x7ca <set_custom_character+0xa>
  SPDR = byte;                        //send payload
     7ce:	6f b9       	out	0x0f, r22	; 15
  while (bit_is_clear(SPSR,SPIF)){}   //wait till byte is sent out
     7d0:	77 9b       	sbis	0x0e, 7	; 14
     7d2:	fe cf       	rjmp	.-4      	; 0x7d0 <set_custom_character+0x10>
//pulse width for a 4 Mhz clock.
//TODO: make number of nops executed dependent on F_CPU, not hardcoded
//
void strobe_lcd(void){ 
#if SPI_MODE==1
 PORTF |=  0x08; PORTF &= ~0x08; //toggle port F bit 3, LCD strobe trigger
     7d4:	20 91 62 00 	lds	r18, 0x0062	; 0x800062 <__TEXT_REGION_LENGTH__+0x7e0062>
     7d8:	28 60       	ori	r18, 0x08	; 8
     7da:	20 93 62 00 	sts	0x0062, r18	; 0x800062 <__TEXT_REGION_LENGTH__+0x7e0062>
     7de:	20 91 62 00 	lds	r18, 0x0062	; 0x800062 <__TEXT_REGION_LENGTH__+0x7e0062>
     7e2:	27 7f       	andi	r18, 0xF7	; 247
     7e4:	20 93 62 00 	sts	0x0062, r18	; 0x800062 <__TEXT_REGION_LENGTH__+0x7e0062>
     7e8:	25 ed       	ldi	r18, 0xD5	; 213
     7ea:	2a 95       	dec	r18
     7ec:	f1 f7       	brne	.-4      	; 0x7ea <set_custom_character+0x2a>
     7ee:	00 00       	nop
     7f0:	fc 01       	movw	r30, r24
     7f2:	9c 01       	movw	r18, r24
     7f4:	28 5f       	subi	r18, 0xF8	; 248
     7f6:	3f 4f       	sbci	r19, 0xFF	; 255
// Commnads that require more time have delays built in for them.
//
void send_lcd(uint8_t cmd_or_char, uint8_t byte){

#if SPI_MODE==1
  SPDR = (cmd_or_char)? 0x01 : 0x00;  //send the proper value for intent
     7f8:	91 e0       	ldi	r25, 0x01	; 1

void set_custom_character(uint8_t data[], uint8_t address){
    uint8_t i;
    send_lcd(CMD_BYTE, 0x40 + (address << 3)); _delay_us(40);  //only needs 37uS
    for(i=0; i<8; i++){
      send_lcd(CHAR_BYTE, data[i]); _delay_us(40); //each char byte takes 37us to execute
     7fa:	81 91       	ld	r24, Z+
// Commnads that require more time have delays built in for them.
//
void send_lcd(uint8_t cmd_or_char, uint8_t byte){

#if SPI_MODE==1
  SPDR = (cmd_or_char)? 0x01 : 0x00;  //send the proper value for intent
     7fc:	9f b9       	out	0x0f, r25	; 15
  while (bit_is_clear(SPSR,SPIF)){}   //wait till byte is sent out
     7fe:	77 9b       	sbis	0x0e, 7	; 14
     800:	fe cf       	rjmp	.-4      	; 0x7fe <set_custom_character+0x3e>
  SPDR = byte;                        //send payload
     802:	8f b9       	out	0x0f, r24	; 15
  while (bit_is_clear(SPSR,SPIF)){}   //wait till byte is sent out
     804:	77 9b       	sbis	0x0e, 7	; 14
     806:	fe cf       	rjmp	.-4      	; 0x804 <set_custom_character+0x44>
//pulse width for a 4 Mhz clock.
//TODO: make number of nops executed dependent on F_CPU, not hardcoded
//
void strobe_lcd(void){ 
#if SPI_MODE==1
 PORTF |=  0x08; PORTF &= ~0x08; //toggle port F bit 3, LCD strobe trigger
     808:	80 91 62 00 	lds	r24, 0x0062	; 0x800062 <__TEXT_REGION_LENGTH__+0x7e0062>
     80c:	88 60       	ori	r24, 0x08	; 8
     80e:	80 93 62 00 	sts	0x0062, r24	; 0x800062 <__TEXT_REGION_LENGTH__+0x7e0062>
     812:	80 91 62 00 	lds	r24, 0x0062	; 0x800062 <__TEXT_REGION_LENGTH__+0x7e0062>
     816:	87 7f       	andi	r24, 0xF7	; 247
     818:	80 93 62 00 	sts	0x0062, r24	; 0x800062 <__TEXT_REGION_LENGTH__+0x7e0062>
     81c:	85 ed       	ldi	r24, 0xD5	; 213
     81e:	8a 95       	dec	r24
     820:	f1 f7       	brne	.-4      	; 0x81e <set_custom_character+0x5e>
     822:	00 00       	nop
//via a forward slash escape as in string2lcd("this is my music note \1")

void set_custom_character(uint8_t data[], uint8_t address){
    uint8_t i;
    send_lcd(CMD_BYTE, 0x40 + (address << 3)); _delay_us(40);  //only needs 37uS
    for(i=0; i<8; i++){
     824:	e2 17       	cp	r30, r18
     826:	f3 07       	cpc	r31, r19
     828:	41 f7       	brne	.-48     	; 0x7fa <set_custom_character+0x3a>
      send_lcd(CHAR_BYTE, data[i]); _delay_us(40); //each char byte takes 37us to execute
    }
}
     82a:	08 95       	ret

0000082c <set_cursor>:
//                          set_cursor 
//
//Sets the cursor to an arbitrary potition on the screen, row is either 1 or 2
//col is a number form 0-15, counting from left to right
void set_cursor(uint8_t row, uint8_t col){
    send_lcd(CMD_BYTE, 0x80 + col + ((row-1)*0x40));
     82c:	90 e4       	ldi	r25, 0x40	; 64
     82e:	89 9f       	mul	r24, r25
     830:	60 0d       	add	r22, r0
     832:	11 24       	eor	r1, r1
     834:	60 5c       	subi	r22, 0xC0	; 192
// Commnads that require more time have delays built in for them.
//
void send_lcd(uint8_t cmd_or_char, uint8_t byte){

#if SPI_MODE==1
  SPDR = (cmd_or_char)? 0x01 : 0x00;  //send the proper value for intent
     836:	1f b8       	out	0x0f, r1	; 15
  while (bit_is_clear(SPSR,SPIF)){}   //wait till byte is sent out
     838:	77 9b       	sbis	0x0e, 7	; 14
     83a:	fe cf       	rjmp	.-4      	; 0x838 <set_cursor+0xc>
  SPDR = byte;                        //send payload
     83c:	6f b9       	out	0x0f, r22	; 15
  while (bit_is_clear(SPSR,SPIF)){}   //wait till byte is sent out
     83e:	77 9b       	sbis	0x0e, 7	; 14
     840:	fe cf       	rjmp	.-4      	; 0x83e <set_cursor+0x12>
//pulse width for a 4 Mhz clock.
//TODO: make number of nops executed dependent on F_CPU, not hardcoded
//
void strobe_lcd(void){ 
#if SPI_MODE==1
 PORTF |=  0x08; PORTF &= ~0x08; //toggle port F bit 3, LCD strobe trigger
     842:	80 91 62 00 	lds	r24, 0x0062	; 0x800062 <__TEXT_REGION_LENGTH__+0x7e0062>
     846:	88 60       	ori	r24, 0x08	; 8
     848:	80 93 62 00 	sts	0x0062, r24	; 0x800062 <__TEXT_REGION_LENGTH__+0x7e0062>
     84c:	80 91 62 00 	lds	r24, 0x0062	; 0x800062 <__TEXT_REGION_LENGTH__+0x7e0062>
     850:	87 7f       	andi	r24, 0xF7	; 247
     852:	80 93 62 00 	sts	0x0062, r24	; 0x800062 <__TEXT_REGION_LENGTH__+0x7e0062>
     856:	08 95       	ret

00000858 <uint2lcd>:
//not displayed.  
//TODO: optimize by removing the mod operators
//TODO: Should be renamed uint8_2lcd(). Also, implement a uint16_2lcd() function

void uint2lcd(uint8_t number){
    if  (number == 0)  {send_lcd(CHAR_BYTE, 0x30                ); }
     858:	81 11       	cpse	r24, r1
     85a:	13 c0       	rjmp	.+38     	; 0x882 <uint2lcd+0x2a>
// Commnads that require more time have delays built in for them.
//
void send_lcd(uint8_t cmd_or_char, uint8_t byte){

#if SPI_MODE==1
  SPDR = (cmd_or_char)? 0x01 : 0x00;  //send the proper value for intent
     85c:	81 e0       	ldi	r24, 0x01	; 1
     85e:	8f b9       	out	0x0f, r24	; 15
  while (bit_is_clear(SPSR,SPIF)){}   //wait till byte is sent out
     860:	77 9b       	sbis	0x0e, 7	; 14
     862:	fe cf       	rjmp	.-4      	; 0x860 <uint2lcd+0x8>
  SPDR = byte;                        //send payload
     864:	80 e3       	ldi	r24, 0x30	; 48
     866:	8f b9       	out	0x0f, r24	; 15
  while (bit_is_clear(SPSR,SPIF)){}   //wait till byte is sent out
     868:	77 9b       	sbis	0x0e, 7	; 14
     86a:	fe cf       	rjmp	.-4      	; 0x868 <uint2lcd+0x10>
//pulse width for a 4 Mhz clock.
//TODO: make number of nops executed dependent on F_CPU, not hardcoded
//
void strobe_lcd(void){ 
#if SPI_MODE==1
 PORTF |=  0x08; PORTF &= ~0x08; //toggle port F bit 3, LCD strobe trigger
     86c:	80 91 62 00 	lds	r24, 0x0062	; 0x800062 <__TEXT_REGION_LENGTH__+0x7e0062>
     870:	88 60       	ori	r24, 0x08	; 8
     872:	80 93 62 00 	sts	0x0062, r24	; 0x800062 <__TEXT_REGION_LENGTH__+0x7e0062>
     876:	80 91 62 00 	lds	r24, 0x0062	; 0x800062 <__TEXT_REGION_LENGTH__+0x7e0062>
     87a:	87 7f       	andi	r24, 0xF7	; 247
     87c:	80 93 62 00 	sts	0x0062, r24	; 0x800062 <__TEXT_REGION_LENGTH__+0x7e0062>
     880:	08 95       	ret
//TODO: Should be renamed uint8_2lcd(). Also, implement a uint16_2lcd() function

void uint2lcd(uint8_t number){
    if  (number == 0)  {send_lcd(CHAR_BYTE, 0x30                ); }
    else{
      if(number >= 100){send_lcd(CHAR_BYTE, 0x30+number/100     ); }
     882:	84 36       	cpi	r24, 0x64	; 100
     884:	b0 f4       	brcc	.+44     	; 0x8b2 <uint2lcd+0x5a>
      if(number >= 10) {send_lcd(CHAR_BYTE, 0x30+(number%100)/10); }
     886:	8a 30       	cpi	r24, 0x0A	; 10
     888:	60 f5       	brcc	.+88     	; 0x8e2 <uint2lcd+0x8a>
// Commnads that require more time have delays built in for them.
//
void send_lcd(uint8_t cmd_or_char, uint8_t byte){

#if SPI_MODE==1
  SPDR = (cmd_or_char)? 0x01 : 0x00;  //send the proper value for intent
     88a:	91 e0       	ldi	r25, 0x01	; 1
     88c:	9f b9       	out	0x0f, r25	; 15
  while (bit_is_clear(SPSR,SPIF)){}   //wait till byte is sent out
     88e:	77 9b       	sbis	0x0e, 7	; 14
     890:	fe cf       	rjmp	.-4      	; 0x88e <uint2lcd+0x36>
void uint2lcd(uint8_t number){
    if  (number == 0)  {send_lcd(CHAR_BYTE, 0x30                ); }
    else{
      if(number >= 100){send_lcd(CHAR_BYTE, 0x30+number/100     ); }
      if(number >= 10) {send_lcd(CHAR_BYTE, 0x30+(number%100)/10); }
      if(number >= 1)  {send_lcd(CHAR_BYTE, 0x30+(number%10)    ); }
     892:	9d ec       	ldi	r25, 0xCD	; 205
     894:	89 9f       	mul	r24, r25
     896:	91 2d       	mov	r25, r1
     898:	11 24       	eor	r1, r1
     89a:	96 95       	lsr	r25
     89c:	96 95       	lsr	r25
     89e:	96 95       	lsr	r25
     8a0:	2a e0       	ldi	r18, 0x0A	; 10
     8a2:	92 9f       	mul	r25, r18
     8a4:	80 19       	sub	r24, r0
     8a6:	11 24       	eor	r1, r1
     8a8:	80 5d       	subi	r24, 0xD0	; 208
void send_lcd(uint8_t cmd_or_char, uint8_t byte){

#if SPI_MODE==1
  SPDR = (cmd_or_char)? 0x01 : 0x00;  //send the proper value for intent
  while (bit_is_clear(SPSR,SPIF)){}   //wait till byte is sent out
  SPDR = byte;                        //send payload
     8aa:	8f b9       	out	0x0f, r24	; 15
  while (bit_is_clear(SPSR,SPIF)){}   //wait till byte is sent out
     8ac:	77 9b       	sbis	0x0e, 7	; 14
     8ae:	fe cf       	rjmp	.-4      	; 0x8ac <uint2lcd+0x54>
     8b0:	dd cf       	rjmp	.-70     	; 0x86c <uint2lcd+0x14>
//TODO: Should be renamed uint8_2lcd(). Also, implement a uint16_2lcd() function

void uint2lcd(uint8_t number){
    if  (number == 0)  {send_lcd(CHAR_BYTE, 0x30                ); }
    else{
      if(number >= 100){send_lcd(CHAR_BYTE, 0x30+number/100     ); }
     8b2:	99 e2       	ldi	r25, 0x29	; 41
     8b4:	89 9f       	mul	r24, r25
     8b6:	91 2d       	mov	r25, r1
     8b8:	11 24       	eor	r1, r1
     8ba:	92 95       	swap	r25
     8bc:	9f 70       	andi	r25, 0x0F	; 15
     8be:	90 5d       	subi	r25, 0xD0	; 208
// Commnads that require more time have delays built in for them.
//
void send_lcd(uint8_t cmd_or_char, uint8_t byte){

#if SPI_MODE==1
  SPDR = (cmd_or_char)? 0x01 : 0x00;  //send the proper value for intent
     8c0:	21 e0       	ldi	r18, 0x01	; 1
     8c2:	2f b9       	out	0x0f, r18	; 15
  while (bit_is_clear(SPSR,SPIF)){}   //wait till byte is sent out
     8c4:	77 9b       	sbis	0x0e, 7	; 14
     8c6:	fe cf       	rjmp	.-4      	; 0x8c4 <uint2lcd+0x6c>
  SPDR = byte;                        //send payload
     8c8:	9f b9       	out	0x0f, r25	; 15
  while (bit_is_clear(SPSR,SPIF)){}   //wait till byte is sent out
     8ca:	77 9b       	sbis	0x0e, 7	; 14
     8cc:	fe cf       	rjmp	.-4      	; 0x8ca <uint2lcd+0x72>
//pulse width for a 4 Mhz clock.
//TODO: make number of nops executed dependent on F_CPU, not hardcoded
//
void strobe_lcd(void){ 
#if SPI_MODE==1
 PORTF |=  0x08; PORTF &= ~0x08; //toggle port F bit 3, LCD strobe trigger
     8ce:	90 91 62 00 	lds	r25, 0x0062	; 0x800062 <__TEXT_REGION_LENGTH__+0x7e0062>
     8d2:	98 60       	ori	r25, 0x08	; 8
     8d4:	90 93 62 00 	sts	0x0062, r25	; 0x800062 <__TEXT_REGION_LENGTH__+0x7e0062>
     8d8:	90 91 62 00 	lds	r25, 0x0062	; 0x800062 <__TEXT_REGION_LENGTH__+0x7e0062>
     8dc:	97 7f       	andi	r25, 0xF7	; 247
     8de:	90 93 62 00 	sts	0x0062, r25	; 0x800062 <__TEXT_REGION_LENGTH__+0x7e0062>

void uint2lcd(uint8_t number){
    if  (number == 0)  {send_lcd(CHAR_BYTE, 0x30                ); }
    else{
      if(number >= 100){send_lcd(CHAR_BYTE, 0x30+number/100     ); }
      if(number >= 10) {send_lcd(CHAR_BYTE, 0x30+(number%100)/10); }
     8e2:	99 e2       	ldi	r25, 0x29	; 41
     8e4:	89 9f       	mul	r24, r25
     8e6:	91 2d       	mov	r25, r1
     8e8:	11 24       	eor	r1, r1
     8ea:	92 95       	swap	r25
     8ec:	9f 70       	andi	r25, 0x0F	; 15
     8ee:	38 2f       	mov	r19, r24
     8f0:	24 e6       	ldi	r18, 0x64	; 100
     8f2:	92 9f       	mul	r25, r18
     8f4:	30 19       	sub	r19, r0
     8f6:	11 24       	eor	r1, r1
     8f8:	2d ec       	ldi	r18, 0xCD	; 205
     8fa:	32 9f       	mul	r19, r18
     8fc:	91 2d       	mov	r25, r1
     8fe:	11 24       	eor	r1, r1
     900:	96 95       	lsr	r25
     902:	96 95       	lsr	r25
     904:	96 95       	lsr	r25
     906:	90 5d       	subi	r25, 0xD0	; 208
// Commnads that require more time have delays built in for them.
//
void send_lcd(uint8_t cmd_or_char, uint8_t byte){

#if SPI_MODE==1
  SPDR = (cmd_or_char)? 0x01 : 0x00;  //send the proper value for intent
     908:	21 e0       	ldi	r18, 0x01	; 1
     90a:	2f b9       	out	0x0f, r18	; 15
  while (bit_is_clear(SPSR,SPIF)){}   //wait till byte is sent out
     90c:	77 9b       	sbis	0x0e, 7	; 14
     90e:	fe cf       	rjmp	.-4      	; 0x90c <uint2lcd+0xb4>
  SPDR = byte;                        //send payload
     910:	9f b9       	out	0x0f, r25	; 15
  while (bit_is_clear(SPSR,SPIF)){}   //wait till byte is sent out
     912:	77 9b       	sbis	0x0e, 7	; 14
     914:	fe cf       	rjmp	.-4      	; 0x912 <uint2lcd+0xba>
//pulse width for a 4 Mhz clock.
//TODO: make number of nops executed dependent on F_CPU, not hardcoded
//
void strobe_lcd(void){ 
#if SPI_MODE==1
 PORTF |=  0x08; PORTF &= ~0x08; //toggle port F bit 3, LCD strobe trigger
     916:	90 91 62 00 	lds	r25, 0x0062	; 0x800062 <__TEXT_REGION_LENGTH__+0x7e0062>
     91a:	98 60       	ori	r25, 0x08	; 8
     91c:	90 93 62 00 	sts	0x0062, r25	; 0x800062 <__TEXT_REGION_LENGTH__+0x7e0062>
     920:	90 91 62 00 	lds	r25, 0x0062	; 0x800062 <__TEXT_REGION_LENGTH__+0x7e0062>
     924:	97 7f       	andi	r25, 0xF7	; 247
     926:	90 93 62 00 	sts	0x0062, r25	; 0x800062 <__TEXT_REGION_LENGTH__+0x7e0062>
     92a:	af cf       	rjmp	.-162    	; 0x88a <uint2lcd+0x32>

0000092c <int2lcd>:
//Takes a 8bit signed and displays it in base ten on the LCD. Leading 0's are 
//not displayed.
//
void int2lcd(int8_t number){
    //if < 0, print minus sign, then take 2's complement of number and display
    if(number < 0){send_lcd(CHAR_BYTE, '-'); _delay_us(40); uint2lcd(~number+1);}  
     92c:	87 ff       	sbrs	r24, 7
    else          {uint2lcd(number);                                            }
     92e:	0c 94 2c 04 	jmp	0x858	; 0x858 <uint2lcd>
// Commnads that require more time have delays built in for them.
//
void send_lcd(uint8_t cmd_or_char, uint8_t byte){

#if SPI_MODE==1
  SPDR = (cmd_or_char)? 0x01 : 0x00;  //send the proper value for intent
     932:	91 e0       	ldi	r25, 0x01	; 1
     934:	9f b9       	out	0x0f, r25	; 15
  while (bit_is_clear(SPSR,SPIF)){}   //wait till byte is sent out
     936:	77 9b       	sbis	0x0e, 7	; 14
     938:	fe cf       	rjmp	.-4      	; 0x936 <int2lcd+0xa>
  SPDR = byte;                        //send payload
     93a:	9d e2       	ldi	r25, 0x2D	; 45
     93c:	9f b9       	out	0x0f, r25	; 15
  while (bit_is_clear(SPSR,SPIF)){}   //wait till byte is sent out
     93e:	77 9b       	sbis	0x0e, 7	; 14
     940:	fe cf       	rjmp	.-4      	; 0x93e <int2lcd+0x12>
//pulse width for a 4 Mhz clock.
//TODO: make number of nops executed dependent on F_CPU, not hardcoded
//
void strobe_lcd(void){ 
#if SPI_MODE==1
 PORTF |=  0x08; PORTF &= ~0x08; //toggle port F bit 3, LCD strobe trigger
     942:	90 91 62 00 	lds	r25, 0x0062	; 0x800062 <__TEXT_REGION_LENGTH__+0x7e0062>
     946:	98 60       	ori	r25, 0x08	; 8
     948:	90 93 62 00 	sts	0x0062, r25	; 0x800062 <__TEXT_REGION_LENGTH__+0x7e0062>
     94c:	90 91 62 00 	lds	r25, 0x0062	; 0x800062 <__TEXT_REGION_LENGTH__+0x7e0062>
     950:	97 7f       	andi	r25, 0xF7	; 247
     952:	90 93 62 00 	sts	0x0062, r25	; 0x800062 <__TEXT_REGION_LENGTH__+0x7e0062>
     956:	95 ed       	ldi	r25, 0xD5	; 213
     958:	9a 95       	dec	r25
     95a:	f1 f7       	brne	.-4      	; 0x958 <int2lcd+0x2c>
     95c:	00 00       	nop
//Takes a 8bit signed and displays it in base ten on the LCD. Leading 0's are 
//not displayed.
//
void int2lcd(int8_t number){
    //if < 0, print minus sign, then take 2's complement of number and display
    if(number < 0){send_lcd(CHAR_BYTE, '-'); _delay_us(40); uint2lcd(~number+1);}  
     95e:	81 95       	neg	r24
     960:	0c 94 2c 04 	jmp	0x858	; 0x858 <uint2lcd>

00000964 <cursor_on>:
// Commnads that require more time have delays built in for them.
//
void send_lcd(uint8_t cmd_or_char, uint8_t byte){

#if SPI_MODE==1
  SPDR = (cmd_or_char)? 0x01 : 0x00;  //send the proper value for intent
     964:	1f b8       	out	0x0f, r1	; 15
  while (bit_is_clear(SPSR,SPIF)){}   //wait till byte is sent out
     966:	77 9b       	sbis	0x0e, 7	; 14
     968:	fe cf       	rjmp	.-4      	; 0x966 <cursor_on+0x2>
  SPDR = byte;                        //send payload
     96a:	8e e0       	ldi	r24, 0x0E	; 14
     96c:	8f b9       	out	0x0f, r24	; 15
  while (bit_is_clear(SPSR,SPIF)){}   //wait till byte is sent out
     96e:	77 9b       	sbis	0x0e, 7	; 14
     970:	fe cf       	rjmp	.-4      	; 0x96e <cursor_on+0xa>
//pulse width for a 4 Mhz clock.
//TODO: make number of nops executed dependent on F_CPU, not hardcoded
//
void strobe_lcd(void){ 
#if SPI_MODE==1
 PORTF |=  0x08; PORTF &= ~0x08; //toggle port F bit 3, LCD strobe trigger
     972:	80 91 62 00 	lds	r24, 0x0062	; 0x800062 <__TEXT_REGION_LENGTH__+0x7e0062>
     976:	88 60       	ori	r24, 0x08	; 8
     978:	80 93 62 00 	sts	0x0062, r24	; 0x800062 <__TEXT_REGION_LENGTH__+0x7e0062>
     97c:	80 91 62 00 	lds	r24, 0x0062	; 0x800062 <__TEXT_REGION_LENGTH__+0x7e0062>
     980:	87 7f       	andi	r24, 0xF7	; 247
     982:	80 93 62 00 	sts	0x0062, r24	; 0x800062 <__TEXT_REGION_LENGTH__+0x7e0062>
     986:	08 95       	ret

00000988 <cursor_off>:
// Commnads that require more time have delays built in for them.
//
void send_lcd(uint8_t cmd_or_char, uint8_t byte){

#if SPI_MODE==1
  SPDR = (cmd_or_char)? 0x01 : 0x00;  //send the proper value for intent
     988:	1f b8       	out	0x0f, r1	; 15
  while (bit_is_clear(SPSR,SPIF)){}   //wait till byte is sent out
     98a:	77 9b       	sbis	0x0e, 7	; 14
     98c:	fe cf       	rjmp	.-4      	; 0x98a <cursor_off+0x2>
  SPDR = byte;                        //send payload
     98e:	8c e0       	ldi	r24, 0x0C	; 12
     990:	8f b9       	out	0x0f, r24	; 15
  while (bit_is_clear(SPSR,SPIF)){}   //wait till byte is sent out
     992:	77 9b       	sbis	0x0e, 7	; 14
     994:	fe cf       	rjmp	.-4      	; 0x992 <cursor_off+0xa>
//pulse width for a 4 Mhz clock.
//TODO: make number of nops executed dependent on F_CPU, not hardcoded
//
void strobe_lcd(void){ 
#if SPI_MODE==1
 PORTF |=  0x08; PORTF &= ~0x08; //toggle port F bit 3, LCD strobe trigger
     996:	80 91 62 00 	lds	r24, 0x0062	; 0x800062 <__TEXT_REGION_LENGTH__+0x7e0062>
     99a:	88 60       	ori	r24, 0x08	; 8
     99c:	80 93 62 00 	sts	0x0062, r24	; 0x800062 <__TEXT_REGION_LENGTH__+0x7e0062>
     9a0:	80 91 62 00 	lds	r24, 0x0062	; 0x800062 <__TEXT_REGION_LENGTH__+0x7e0062>
     9a4:	87 7f       	andi	r24, 0xF7	; 247
     9a6:	80 93 62 00 	sts	0x0062, r24	; 0x800062 <__TEXT_REGION_LENGTH__+0x7e0062>
     9aa:	08 95       	ret

000009ac <shift_right>:
// Commnads that require more time have delays built in for them.
//
void send_lcd(uint8_t cmd_or_char, uint8_t byte){

#if SPI_MODE==1
  SPDR = (cmd_or_char)? 0x01 : 0x00;  //send the proper value for intent
     9ac:	1f b8       	out	0x0f, r1	; 15
  while (bit_is_clear(SPSR,SPIF)){}   //wait till byte is sent out
     9ae:	77 9b       	sbis	0x0e, 7	; 14
     9b0:	fe cf       	rjmp	.-4      	; 0x9ae <shift_right+0x2>
  SPDR = byte;                        //send payload
     9b2:	8e e1       	ldi	r24, 0x1E	; 30
     9b4:	8f b9       	out	0x0f, r24	; 15
  while (bit_is_clear(SPSR,SPIF)){}   //wait till byte is sent out
     9b6:	77 9b       	sbis	0x0e, 7	; 14
     9b8:	fe cf       	rjmp	.-4      	; 0x9b6 <shift_right+0xa>
//pulse width for a 4 Mhz clock.
//TODO: make number of nops executed dependent on F_CPU, not hardcoded
//
void strobe_lcd(void){ 
#if SPI_MODE==1
 PORTF |=  0x08; PORTF &= ~0x08; //toggle port F bit 3, LCD strobe trigger
     9ba:	80 91 62 00 	lds	r24, 0x0062	; 0x800062 <__TEXT_REGION_LENGTH__+0x7e0062>
     9be:	88 60       	ori	r24, 0x08	; 8
     9c0:	80 93 62 00 	sts	0x0062, r24	; 0x800062 <__TEXT_REGION_LENGTH__+0x7e0062>
     9c4:	80 91 62 00 	lds	r24, 0x0062	; 0x800062 <__TEXT_REGION_LENGTH__+0x7e0062>
     9c8:	87 7f       	andi	r24, 0xF7	; 247
     9ca:	80 93 62 00 	sts	0x0062, r24	; 0x800062 <__TEXT_REGION_LENGTH__+0x7e0062>
     9ce:	08 95       	ret

000009d0 <shift_left>:
// Commnads that require more time have delays built in for them.
//
void send_lcd(uint8_t cmd_or_char, uint8_t byte){

#if SPI_MODE==1
  SPDR = (cmd_or_char)? 0x01 : 0x00;  //send the proper value for intent
     9d0:	1f b8       	out	0x0f, r1	; 15
  while (bit_is_clear(SPSR,SPIF)){}   //wait till byte is sent out
     9d2:	77 9b       	sbis	0x0e, 7	; 14
     9d4:	fe cf       	rjmp	.-4      	; 0x9d2 <shift_left+0x2>
  SPDR = byte;                        //send payload
     9d6:	88 e1       	ldi	r24, 0x18	; 24
     9d8:	8f b9       	out	0x0f, r24	; 15
  while (bit_is_clear(SPSR,SPIF)){}   //wait till byte is sent out
     9da:	77 9b       	sbis	0x0e, 7	; 14
     9dc:	fe cf       	rjmp	.-4      	; 0x9da <shift_left+0xa>
//pulse width for a 4 Mhz clock.
//TODO: make number of nops executed dependent on F_CPU, not hardcoded
//
void strobe_lcd(void){ 
#if SPI_MODE==1
 PORTF |=  0x08; PORTF &= ~0x08; //toggle port F bit 3, LCD strobe trigger
     9de:	80 91 62 00 	lds	r24, 0x0062	; 0x800062 <__TEXT_REGION_LENGTH__+0x7e0062>
     9e2:	88 60       	ori	r24, 0x08	; 8
     9e4:	80 93 62 00 	sts	0x0062, r24	; 0x800062 <__TEXT_REGION_LENGTH__+0x7e0062>
     9e8:	80 91 62 00 	lds	r24, 0x0062	; 0x800062 <__TEXT_REGION_LENGTH__+0x7e0062>
     9ec:	87 7f       	andi	r24, 0xF7	; 247
     9ee:	80 93 62 00 	sts	0x0062, r24	; 0x800062 <__TEXT_REGION_LENGTH__+0x7e0062>
     9f2:	08 95       	ret

000009f4 <strobe_lcd>:
     9f4:	e2 e6       	ldi	r30, 0x62	; 98
     9f6:	f0 e0       	ldi	r31, 0x00	; 0
     9f8:	80 81       	ld	r24, Z
     9fa:	88 60       	ori	r24, 0x08	; 8
     9fc:	80 83       	st	Z, r24
     9fe:	80 81       	ld	r24, Z
     a00:	87 7f       	andi	r24, 0xF7	; 247
     a02:	80 83       	st	Z, r24
     a04:	08 95       	ret

00000a06 <clear_display>:
// Commnads that require more time have delays built in for them.
//
void send_lcd(uint8_t cmd_or_char, uint8_t byte){

#if SPI_MODE==1
  SPDR = (cmd_or_char)? 0x01 : 0x00;  //send the proper value for intent
     a06:	1f b8       	out	0x0f, r1	; 15
  while (bit_is_clear(SPSR,SPIF)){}   //wait till byte is sent out
     a08:	77 9b       	sbis	0x0e, 7	; 14
     a0a:	fe cf       	rjmp	.-4      	; 0xa08 <clear_display+0x2>
  SPDR = byte;                        //send payload
     a0c:	81 e0       	ldi	r24, 0x01	; 1
     a0e:	8f b9       	out	0x0f, r24	; 15
  while (bit_is_clear(SPSR,SPIF)){}   //wait till byte is sent out
     a10:	77 9b       	sbis	0x0e, 7	; 14
     a12:	fe cf       	rjmp	.-4      	; 0xa10 <clear_display+0xa>
//pulse width for a 4 Mhz clock.
//TODO: make number of nops executed dependent on F_CPU, not hardcoded
//
void strobe_lcd(void){ 
#if SPI_MODE==1
 PORTF |=  0x08; PORTF &= ~0x08; //toggle port F bit 3, LCD strobe trigger
     a14:	80 91 62 00 	lds	r24, 0x0062	; 0x800062 <__TEXT_REGION_LENGTH__+0x7e0062>
     a18:	88 60       	ori	r24, 0x08	; 8
     a1a:	80 93 62 00 	sts	0x0062, r24	; 0x800062 <__TEXT_REGION_LENGTH__+0x7e0062>
     a1e:	80 91 62 00 	lds	r24, 0x0062	; 0x800062 <__TEXT_REGION_LENGTH__+0x7e0062>
     a22:	87 7f       	andi	r24, 0xF7	; 247
     a24:	80 93 62 00 	sts	0x0062, r24	; 0x800062 <__TEXT_REGION_LENGTH__+0x7e0062>
     a28:	8f e1       	ldi	r24, 0x1F	; 31
     a2a:	9c e1       	ldi	r25, 0x1C	; 28
     a2c:	01 97       	sbiw	r24, 0x01	; 1
     a2e:	f1 f7       	brne	.-4      	; 0xa2c <clear_display+0x26>
     a30:	00 c0       	rjmp	.+0      	; 0xa32 <clear_display+0x2c>
     a32:	00 00       	nop
     a34:	08 95       	ret

00000a36 <cursor_home>:
// Commnads that require more time have delays built in for them.
//
void send_lcd(uint8_t cmd_or_char, uint8_t byte){

#if SPI_MODE==1
  SPDR = (cmd_or_char)? 0x01 : 0x00;  //send the proper value for intent
     a36:	1f b8       	out	0x0f, r1	; 15
  while (bit_is_clear(SPSR,SPIF)){}   //wait till byte is sent out
     a38:	77 9b       	sbis	0x0e, 7	; 14
     a3a:	fe cf       	rjmp	.-4      	; 0xa38 <cursor_home+0x2>
  SPDR = byte;                        //send payload
     a3c:	82 e0       	ldi	r24, 0x02	; 2
     a3e:	8f b9       	out	0x0f, r24	; 15
  while (bit_is_clear(SPSR,SPIF)){}   //wait till byte is sent out
     a40:	77 9b       	sbis	0x0e, 7	; 14
     a42:	fe cf       	rjmp	.-4      	; 0xa40 <cursor_home+0xa>
//pulse width for a 4 Mhz clock.
//TODO: make number of nops executed dependent on F_CPU, not hardcoded
//
void strobe_lcd(void){ 
#if SPI_MODE==1
 PORTF |=  0x08; PORTF &= ~0x08; //toggle port F bit 3, LCD strobe trigger
     a44:	80 91 62 00 	lds	r24, 0x0062	; 0x800062 <__TEXT_REGION_LENGTH__+0x7e0062>
     a48:	88 60       	ori	r24, 0x08	; 8
     a4a:	80 93 62 00 	sts	0x0062, r24	; 0x800062 <__TEXT_REGION_LENGTH__+0x7e0062>
     a4e:	80 91 62 00 	lds	r24, 0x0062	; 0x800062 <__TEXT_REGION_LENGTH__+0x7e0062>
     a52:	87 7f       	andi	r24, 0xF7	; 247
     a54:	80 93 62 00 	sts	0x0062, r24	; 0x800062 <__TEXT_REGION_LENGTH__+0x7e0062>
     a58:	8f e6       	ldi	r24, 0x6F	; 111
     a5a:	97 e1       	ldi	r25, 0x17	; 23
     a5c:	01 97       	sbiw	r24, 0x01	; 1
     a5e:	f1 f7       	brne	.-4      	; 0xa5c <cursor_home+0x26>
     a60:	00 c0       	rjmp	.+0      	; 0xa62 <cursor_home+0x2c>
     a62:	00 00       	nop
     a64:	08 95       	ret

00000a66 <line2_col1>:
// Commnads that require more time have delays built in for them.
//
void send_lcd(uint8_t cmd_or_char, uint8_t byte){

#if SPI_MODE==1
  SPDR = (cmd_or_char)? 0x01 : 0x00;  //send the proper value for intent
     a66:	1f b8       	out	0x0f, r1	; 15
  while (bit_is_clear(SPSR,SPIF)){}   //wait till byte is sent out
     a68:	77 9b       	sbis	0x0e, 7	; 14
     a6a:	fe cf       	rjmp	.-4      	; 0xa68 <line2_col1+0x2>
  SPDR = byte;                        //send payload
     a6c:	80 ec       	ldi	r24, 0xC0	; 192
     a6e:	8f b9       	out	0x0f, r24	; 15
  while (bit_is_clear(SPSR,SPIF)){}   //wait till byte is sent out
     a70:	77 9b       	sbis	0x0e, 7	; 14
     a72:	fe cf       	rjmp	.-4      	; 0xa70 <line2_col1+0xa>
//pulse width for a 4 Mhz clock.
//TODO: make number of nops executed dependent on F_CPU, not hardcoded
//
void strobe_lcd(void){ 
#if SPI_MODE==1
 PORTF |=  0x08; PORTF &= ~0x08; //toggle port F bit 3, LCD strobe trigger
     a74:	80 91 62 00 	lds	r24, 0x0062	; 0x800062 <__TEXT_REGION_LENGTH__+0x7e0062>
     a78:	88 60       	ori	r24, 0x08	; 8
     a7a:	80 93 62 00 	sts	0x0062, r24	; 0x800062 <__TEXT_REGION_LENGTH__+0x7e0062>
     a7e:	80 91 62 00 	lds	r24, 0x0062	; 0x800062 <__TEXT_REGION_LENGTH__+0x7e0062>
     a82:	87 7f       	andi	r24, 0xF7	; 247
     a84:	80 93 62 00 	sts	0x0062, r24	; 0x800062 <__TEXT_REGION_LENGTH__+0x7e0062>
     a88:	08 95       	ret

00000a8a <line1_col1>:
// Commnads that require more time have delays built in for them.
//
void send_lcd(uint8_t cmd_or_char, uint8_t byte){

#if SPI_MODE==1
  SPDR = (cmd_or_char)? 0x01 : 0x00;  //send the proper value for intent
     a8a:	1f b8       	out	0x0f, r1	; 15
  while (bit_is_clear(SPSR,SPIF)){}   //wait till byte is sent out
     a8c:	77 9b       	sbis	0x0e, 7	; 14
     a8e:	fe cf       	rjmp	.-4      	; 0xa8c <line1_col1+0x2>
  SPDR = byte;                        //send payload
     a90:	80 e8       	ldi	r24, 0x80	; 128
     a92:	8f b9       	out	0x0f, r24	; 15
  while (bit_is_clear(SPSR,SPIF)){}   //wait till byte is sent out
     a94:	77 9b       	sbis	0x0e, 7	; 14
     a96:	fe cf       	rjmp	.-4      	; 0xa94 <line1_col1+0xa>
//pulse width for a 4 Mhz clock.
//TODO: make number of nops executed dependent on F_CPU, not hardcoded
//
void strobe_lcd(void){ 
#if SPI_MODE==1
 PORTF |=  0x08; PORTF &= ~0x08; //toggle port F bit 3, LCD strobe trigger
     a98:	80 91 62 00 	lds	r24, 0x0062	; 0x800062 <__TEXT_REGION_LENGTH__+0x7e0062>
     a9c:	88 60       	ori	r24, 0x08	; 8
     a9e:	80 93 62 00 	sts	0x0062, r24	; 0x800062 <__TEXT_REGION_LENGTH__+0x7e0062>
     aa2:	80 91 62 00 	lds	r24, 0x0062	; 0x800062 <__TEXT_REGION_LENGTH__+0x7e0062>
     aa6:	87 7f       	andi	r24, 0xF7	; 247
     aa8:	80 93 62 00 	sts	0x0062, r24	; 0x800062 <__TEXT_REGION_LENGTH__+0x7e0062>
     aac:	08 95       	ret

00000aae <fill_spaces>:

//-----------------------------------------------------------------------------
//                          fill_spaces   
//
//Fill an entire line with spaces.
void fill_spaces(void){
     aae:	90 e1       	ldi	r25, 0x10	; 16
// Commnads that require more time have delays built in for them.
//
void send_lcd(uint8_t cmd_or_char, uint8_t byte){

#if SPI_MODE==1
  SPDR = (cmd_or_char)? 0x01 : 0x00;  //send the proper value for intent
     ab0:	31 e0       	ldi	r19, 0x01	; 1
  while (bit_is_clear(SPSR,SPIF)){}   //wait till byte is sent out
  SPDR = byte;                        //send payload
     ab2:	20 e2       	ldi	r18, 0x20	; 32
// Commnads that require more time have delays built in for them.
//
void send_lcd(uint8_t cmd_or_char, uint8_t byte){

#if SPI_MODE==1
  SPDR = (cmd_or_char)? 0x01 : 0x00;  //send the proper value for intent
     ab4:	3f b9       	out	0x0f, r19	; 15
  while (bit_is_clear(SPSR,SPIF)){}   //wait till byte is sent out
     ab6:	77 9b       	sbis	0x0e, 7	; 14
     ab8:	fe cf       	rjmp	.-4      	; 0xab6 <fill_spaces+0x8>
  SPDR = byte;                        //send payload
     aba:	2f b9       	out	0x0f, r18	; 15
  while (bit_is_clear(SPSR,SPIF)){}   //wait till byte is sent out
     abc:	77 9b       	sbis	0x0e, 7	; 14
     abe:	fe cf       	rjmp	.-4      	; 0xabc <fill_spaces+0xe>
//pulse width for a 4 Mhz clock.
//TODO: make number of nops executed dependent on F_CPU, not hardcoded
//
void strobe_lcd(void){ 
#if SPI_MODE==1
 PORTF |=  0x08; PORTF &= ~0x08; //toggle port F bit 3, LCD strobe trigger
     ac0:	80 91 62 00 	lds	r24, 0x0062	; 0x800062 <__TEXT_REGION_LENGTH__+0x7e0062>
     ac4:	88 60       	ori	r24, 0x08	; 8
     ac6:	80 93 62 00 	sts	0x0062, r24	; 0x800062 <__TEXT_REGION_LENGTH__+0x7e0062>
     aca:	80 91 62 00 	lds	r24, 0x0062	; 0x800062 <__TEXT_REGION_LENGTH__+0x7e0062>
     ace:	87 7f       	andi	r24, 0xF7	; 247
     ad0:	80 93 62 00 	sts	0x0062, r24	; 0x800062 <__TEXT_REGION_LENGTH__+0x7e0062>
     ad4:	85 ed       	ldi	r24, 0xD5	; 213
     ad6:	8a 95       	dec	r24
     ad8:	f1 f7       	brne	.-4      	; 0xad6 <fill_spaces+0x28>
     ada:	00 00       	nop
     adc:	91 50       	subi	r25, 0x01	; 1
//                          fill_spaces   
//
//Fill an entire line with spaces.
void fill_spaces(void){
	uint8_t i;
	for (i=0; i<=(NUM_LCD_CHARS-1); i++){
     ade:	51 f7       	brne	.-44     	; 0xab4 <fill_spaces+0x6>
		send_lcd(CHAR_BYTE, ' '); 
                _delay_us(40);  //40us wait between characters
	}
}  
     ae0:	08 95       	ret

00000ae2 <char2lcd>:
// Commnads that require more time have delays built in for them.
//
void send_lcd(uint8_t cmd_or_char, uint8_t byte){

#if SPI_MODE==1
  SPDR = (cmd_or_char)? 0x01 : 0x00;  //send the proper value for intent
     ae2:	91 e0       	ldi	r25, 0x01	; 1
     ae4:	9f b9       	out	0x0f, r25	; 15
  while (bit_is_clear(SPSR,SPIF)){}   //wait till byte is sent out
     ae6:	77 9b       	sbis	0x0e, 7	; 14
     ae8:	fe cf       	rjmp	.-4      	; 0xae6 <char2lcd+0x4>
  SPDR = byte;                        //send payload
     aea:	8f b9       	out	0x0f, r24	; 15
  while (bit_is_clear(SPSR,SPIF)){}   //wait till byte is sent out
     aec:	77 9b       	sbis	0x0e, 7	; 14
     aee:	fe cf       	rjmp	.-4      	; 0xaec <char2lcd+0xa>
//pulse width for a 4 Mhz clock.
//TODO: make number of nops executed dependent on F_CPU, not hardcoded
//
void strobe_lcd(void){ 
#if SPI_MODE==1
 PORTF |=  0x08; PORTF &= ~0x08; //toggle port F bit 3, LCD strobe trigger
     af0:	80 91 62 00 	lds	r24, 0x0062	; 0x800062 <__TEXT_REGION_LENGTH__+0x7e0062>
     af4:	88 60       	ori	r24, 0x08	; 8
     af6:	80 93 62 00 	sts	0x0062, r24	; 0x800062 <__TEXT_REGION_LENGTH__+0x7e0062>
     afa:	80 91 62 00 	lds	r24, 0x0062	; 0x800062 <__TEXT_REGION_LENGTH__+0x7e0062>
     afe:	87 7f       	andi	r24, 0xF7	; 247
     b00:	80 93 62 00 	sts	0x0062, r24	; 0x800062 <__TEXT_REGION_LENGTH__+0x7e0062>
     b04:	08 95       	ret

00000b06 <string2lcd>:

//----------------------------------------------------------------------------
//                            string2lcd
//                            
//Send a ascii string to the LCD.
void string2lcd(char *lcd_str){ 
     b06:	fc 01       	movw	r30, r24
  uint8_t i;
  for (i=0; i<=(strlen(lcd_str)-1); i++){send_lcd(CHAR_BYTE, lcd_str[i]);
     b08:	40 e0       	ldi	r20, 0x00	; 0
     b0a:	50 e0       	ldi	r21, 0x00	; 0
     b0c:	60 e0       	ldi	r22, 0x00	; 0
// Commnads that require more time have delays built in for them.
//
void send_lcd(uint8_t cmd_or_char, uint8_t byte){

#if SPI_MODE==1
  SPDR = (cmd_or_char)? 0x01 : 0x00;  //send the proper value for intent
     b0e:	71 e0       	ldi	r23, 0x01	; 1
//                            string2lcd
//                            
//Send a ascii string to the LCD.
void string2lcd(char *lcd_str){ 
  uint8_t i;
  for (i=0; i<=(strlen(lcd_str)-1); i++){send_lcd(CHAR_BYTE, lcd_str[i]);
     b10:	df 01       	movw	r26, r30
     b12:	a4 0f       	add	r26, r20
     b14:	b5 1f       	adc	r27, r21
     b16:	8c 91       	ld	r24, X
// Commnads that require more time have delays built in for them.
//
void send_lcd(uint8_t cmd_or_char, uint8_t byte){

#if SPI_MODE==1
  SPDR = (cmd_or_char)? 0x01 : 0x00;  //send the proper value for intent
     b18:	7f b9       	out	0x0f, r23	; 15
  while (bit_is_clear(SPSR,SPIF)){}   //wait till byte is sent out
     b1a:	77 9b       	sbis	0x0e, 7	; 14
     b1c:	fe cf       	rjmp	.-4      	; 0xb1a <string2lcd+0x14>
  SPDR = byte;                        //send payload
     b1e:	8f b9       	out	0x0f, r24	; 15
  while (bit_is_clear(SPSR,SPIF)){}   //wait till byte is sent out
     b20:	77 9b       	sbis	0x0e, 7	; 14
     b22:	fe cf       	rjmp	.-4      	; 0xb20 <string2lcd+0x1a>
//pulse width for a 4 Mhz clock.
//TODO: make number of nops executed dependent on F_CPU, not hardcoded
//
void strobe_lcd(void){ 
#if SPI_MODE==1
 PORTF |=  0x08; PORTF &= ~0x08; //toggle port F bit 3, LCD strobe trigger
     b24:	90 91 62 00 	lds	r25, 0x0062	; 0x800062 <__TEXT_REGION_LENGTH__+0x7e0062>
     b28:	98 60       	ori	r25, 0x08	; 8
     b2a:	90 93 62 00 	sts	0x0062, r25	; 0x800062 <__TEXT_REGION_LENGTH__+0x7e0062>
     b2e:	90 91 62 00 	lds	r25, 0x0062	; 0x800062 <__TEXT_REGION_LENGTH__+0x7e0062>
     b32:	97 7f       	andi	r25, 0xF7	; 247
     b34:	90 93 62 00 	sts	0x0062, r25	; 0x800062 <__TEXT_REGION_LENGTH__+0x7e0062>
     b38:	85 ed       	ldi	r24, 0xD5	; 213
     b3a:	8a 95       	dec	r24
     b3c:	f1 f7       	brne	.-4      	; 0xb3a <string2lcd+0x34>
     b3e:	00 00       	nop
//                            string2lcd
//                            
//Send a ascii string to the LCD.
void string2lcd(char *lcd_str){ 
  uint8_t i;
  for (i=0; i<=(strlen(lcd_str)-1); i++){send_lcd(CHAR_BYTE, lcd_str[i]);
     b40:	6f 5f       	subi	r22, 0xFF	; 255
     b42:	46 2f       	mov	r20, r22
     b44:	50 e0       	ldi	r21, 0x00	; 0
     b46:	df 01       	movw	r26, r30
     b48:	0d 90       	ld	r0, X+
     b4a:	00 20       	and	r0, r0
     b4c:	e9 f7       	brne	.-6      	; 0xb48 <string2lcd+0x42>
     b4e:	9d 01       	movw	r18, r26
     b50:	2e 1b       	sub	r18, r30
     b52:	3f 0b       	sbc	r19, r31
     b54:	22 50       	subi	r18, 0x02	; 2
     b56:	31 09       	sbc	r19, r1
     b58:	24 17       	cp	r18, r20
     b5a:	35 07       	cpc	r19, r21
     b5c:	c8 f6       	brcc	.-78     	; 0xb10 <string2lcd+0xa>
  _delay_us(40);  //execution takes 37us per character
  }                  
} 
     b5e:	08 95       	ret

00000b60 <lcd_init>:
	#else
		//round up by default
		__ticks_dc = (uint32_t)(ceil(fabs(__tmp)));
	#endif

	__builtin_avr_delay_cycles(__ticks_dc);
     b60:	8f ef       	ldi	r24, 0xFF	; 255
     b62:	99 ef       	ldi	r25, 0xF9	; 249
     b64:	01 97       	sbiw	r24, 0x01	; 1
     b66:	f1 f7       	brne	.-4      	; 0xb64 <lcd_init+0x4>
     b68:	00 c0       	rjmp	.+0      	; 0xb6a <lcd_init+0xa>
     b6a:	00 00       	nop
//
void lcd_init(void){
  _delay_ms(16);      //power up delay
#if SPI_MODE==1       //assumption is that the SPI port is intialized
  //TODO: kludge alert! setting of DDRF should not be here, but is probably harmless.
  DDRF=0x08;          //port F bit 3 is enable for LCD in SPI mode
     b6c:	88 e0       	ldi	r24, 0x08	; 8
     b6e:	80 93 61 00 	sts	0x0061, r24	; 0x800061 <__TEXT_REGION_LENGTH__+0x7e0061>
// Commnads that require more time have delays built in for them.
//
void send_lcd(uint8_t cmd_or_char, uint8_t byte){

#if SPI_MODE==1
  SPDR = (cmd_or_char)? 0x01 : 0x00;  //send the proper value for intent
     b72:	1f b8       	out	0x0f, r1	; 15
  while (bit_is_clear(SPSR,SPIF)){}   //wait till byte is sent out
     b74:	77 9b       	sbis	0x0e, 7	; 14
     b76:	fe cf       	rjmp	.-4      	; 0xb74 <lcd_init+0x14>
  SPDR = byte;                        //send payload
     b78:	80 e3       	ldi	r24, 0x30	; 48
     b7a:	8f b9       	out	0x0f, r24	; 15
  while (bit_is_clear(SPSR,SPIF)){}   //wait till byte is sent out
     b7c:	77 9b       	sbis	0x0e, 7	; 14
     b7e:	fe cf       	rjmp	.-4      	; 0xb7c <lcd_init+0x1c>
//pulse width for a 4 Mhz clock.
//TODO: make number of nops executed dependent on F_CPU, not hardcoded
//
void strobe_lcd(void){ 
#if SPI_MODE==1
 PORTF |=  0x08; PORTF &= ~0x08; //toggle port F bit 3, LCD strobe trigger
     b80:	80 91 62 00 	lds	r24, 0x0062	; 0x800062 <__TEXT_REGION_LENGTH__+0x7e0062>
     b84:	88 60       	ori	r24, 0x08	; 8
     b86:	80 93 62 00 	sts	0x0062, r24	; 0x800062 <__TEXT_REGION_LENGTH__+0x7e0062>
     b8a:	80 91 62 00 	lds	r24, 0x0062	; 0x800062 <__TEXT_REGION_LENGTH__+0x7e0062>
     b8e:	87 7f       	andi	r24, 0xF7	; 247
     b90:	80 93 62 00 	sts	0x0062, r24	; 0x800062 <__TEXT_REGION_LENGTH__+0x7e0062>
     b94:	8f e5       	ldi	r24, 0x5F	; 95
     b96:	9d e6       	ldi	r25, 0x6D	; 109
     b98:	01 97       	sbiw	r24, 0x01	; 1
     b9a:	f1 f7       	brne	.-4      	; 0xb98 <lcd_init+0x38>
     b9c:	00 c0       	rjmp	.+0      	; 0xb9e <lcd_init+0x3e>
     b9e:	00 00       	nop
// Commnads that require more time have delays built in for them.
//
void send_lcd(uint8_t cmd_or_char, uint8_t byte){

#if SPI_MODE==1
  SPDR = (cmd_or_char)? 0x01 : 0x00;  //send the proper value for intent
     ba0:	1f b8       	out	0x0f, r1	; 15
  while (bit_is_clear(SPSR,SPIF)){}   //wait till byte is sent out
     ba2:	77 9b       	sbis	0x0e, 7	; 14
     ba4:	fe cf       	rjmp	.-4      	; 0xba2 <lcd_init+0x42>
  SPDR = byte;                        //send payload
     ba6:	80 e3       	ldi	r24, 0x30	; 48
     ba8:	8f b9       	out	0x0f, r24	; 15
  while (bit_is_clear(SPSR,SPIF)){}   //wait till byte is sent out
     baa:	77 9b       	sbis	0x0e, 7	; 14
     bac:	fe cf       	rjmp	.-4      	; 0xbaa <lcd_init+0x4a>
//pulse width for a 4 Mhz clock.
//TODO: make number of nops executed dependent on F_CPU, not hardcoded
//
void strobe_lcd(void){ 
#if SPI_MODE==1
 PORTF |=  0x08; PORTF &= ~0x08; //toggle port F bit 3, LCD strobe trigger
     bae:	80 91 62 00 	lds	r24, 0x0062	; 0x800062 <__TEXT_REGION_LENGTH__+0x7e0062>
     bb2:	88 60       	ori	r24, 0x08	; 8
     bb4:	80 93 62 00 	sts	0x0062, r24	; 0x800062 <__TEXT_REGION_LENGTH__+0x7e0062>
     bb8:	80 91 62 00 	lds	r24, 0x0062	; 0x800062 <__TEXT_REGION_LENGTH__+0x7e0062>
     bbc:	87 7f       	andi	r24, 0xF7	; 247
     bbe:	80 93 62 00 	sts	0x0062, r24	; 0x800062 <__TEXT_REGION_LENGTH__+0x7e0062>
     bc2:	8f e5       	ldi	r24, 0x5F	; 95
     bc4:	9d e6       	ldi	r25, 0x6D	; 109
     bc6:	01 97       	sbiw	r24, 0x01	; 1
     bc8:	f1 f7       	brne	.-4      	; 0xbc6 <lcd_init+0x66>
     bca:	00 c0       	rjmp	.+0      	; 0xbcc <lcd_init+0x6c>
     bcc:	00 00       	nop
// Commnads that require more time have delays built in for them.
//
void send_lcd(uint8_t cmd_or_char, uint8_t byte){

#if SPI_MODE==1
  SPDR = (cmd_or_char)? 0x01 : 0x00;  //send the proper value for intent
     bce:	1f b8       	out	0x0f, r1	; 15
  while (bit_is_clear(SPSR,SPIF)){}   //wait till byte is sent out
     bd0:	77 9b       	sbis	0x0e, 7	; 14
     bd2:	fe cf       	rjmp	.-4      	; 0xbd0 <lcd_init+0x70>
  SPDR = byte;                        //send payload
     bd4:	80 e3       	ldi	r24, 0x30	; 48
     bd6:	8f b9       	out	0x0f, r24	; 15
  while (bit_is_clear(SPSR,SPIF)){}   //wait till byte is sent out
     bd8:	77 9b       	sbis	0x0e, 7	; 14
     bda:	fe cf       	rjmp	.-4      	; 0xbd8 <lcd_init+0x78>
//pulse width for a 4 Mhz clock.
//TODO: make number of nops executed dependent on F_CPU, not hardcoded
//
void strobe_lcd(void){ 
#if SPI_MODE==1
 PORTF |=  0x08; PORTF &= ~0x08; //toggle port F bit 3, LCD strobe trigger
     bdc:	80 91 62 00 	lds	r24, 0x0062	; 0x800062 <__TEXT_REGION_LENGTH__+0x7e0062>
     be0:	88 60       	ori	r24, 0x08	; 8
     be2:	80 93 62 00 	sts	0x0062, r24	; 0x800062 <__TEXT_REGION_LENGTH__+0x7e0062>
     be6:	80 91 62 00 	lds	r24, 0x0062	; 0x800062 <__TEXT_REGION_LENGTH__+0x7e0062>
     bea:	87 7f       	andi	r24, 0xF7	; 247
     bec:	80 93 62 00 	sts	0x0062, r24	; 0x800062 <__TEXT_REGION_LENGTH__+0x7e0062>
     bf0:	8f e5       	ldi	r24, 0x5F	; 95
     bf2:	9d e6       	ldi	r25, 0x6D	; 109
     bf4:	01 97       	sbiw	r24, 0x01	; 1
     bf6:	f1 f7       	brne	.-4      	; 0xbf4 <lcd_init+0x94>
     bf8:	00 c0       	rjmp	.+0      	; 0xbfa <lcd_init+0x9a>
     bfa:	00 00       	nop
// Commnads that require more time have delays built in for them.
//
void send_lcd(uint8_t cmd_or_char, uint8_t byte){

#if SPI_MODE==1
  SPDR = (cmd_or_char)? 0x01 : 0x00;  //send the proper value for intent
     bfc:	1f b8       	out	0x0f, r1	; 15
  while (bit_is_clear(SPSR,SPIF)){}   //wait till byte is sent out
     bfe:	77 9b       	sbis	0x0e, 7	; 14
     c00:	fe cf       	rjmp	.-4      	; 0xbfe <lcd_init+0x9e>
  SPDR = byte;                        //send payload
     c02:	88 e3       	ldi	r24, 0x38	; 56
     c04:	8f b9       	out	0x0f, r24	; 15
  while (bit_is_clear(SPSR,SPIF)){}   //wait till byte is sent out
     c06:	77 9b       	sbis	0x0e, 7	; 14
     c08:	fe cf       	rjmp	.-4      	; 0xc06 <lcd_init+0xa6>
//pulse width for a 4 Mhz clock.
//TODO: make number of nops executed dependent on F_CPU, not hardcoded
//
void strobe_lcd(void){ 
#if SPI_MODE==1
 PORTF |=  0x08; PORTF &= ~0x08; //toggle port F bit 3, LCD strobe trigger
     c0a:	80 91 62 00 	lds	r24, 0x0062	; 0x800062 <__TEXT_REGION_LENGTH__+0x7e0062>
     c0e:	88 60       	ori	r24, 0x08	; 8
     c10:	80 93 62 00 	sts	0x0062, r24	; 0x800062 <__TEXT_REGION_LENGTH__+0x7e0062>
     c14:	80 91 62 00 	lds	r24, 0x0062	; 0x800062 <__TEXT_REGION_LENGTH__+0x7e0062>
     c18:	87 7f       	andi	r24, 0xF7	; 247
     c1a:	80 93 62 00 	sts	0x0062, r24	; 0x800062 <__TEXT_REGION_LENGTH__+0x7e0062>
     c1e:	8f e1       	ldi	r24, 0x1F	; 31
     c20:	9e e4       	ldi	r25, 0x4E	; 78
     c22:	01 97       	sbiw	r24, 0x01	; 1
     c24:	f1 f7       	brne	.-4      	; 0xc22 <lcd_init+0xc2>
     c26:	00 c0       	rjmp	.+0      	; 0xc28 <lcd_init+0xc8>
     c28:	00 00       	nop
// Commnads that require more time have delays built in for them.
//
void send_lcd(uint8_t cmd_or_char, uint8_t byte){

#if SPI_MODE==1
  SPDR = (cmd_or_char)? 0x01 : 0x00;  //send the proper value for intent
     c2a:	1f b8       	out	0x0f, r1	; 15
  while (bit_is_clear(SPSR,SPIF)){}   //wait till byte is sent out
     c2c:	77 9b       	sbis	0x0e, 7	; 14
     c2e:	fe cf       	rjmp	.-4      	; 0xc2c <lcd_init+0xcc>
  SPDR = byte;                        //send payload
     c30:	88 e0       	ldi	r24, 0x08	; 8
     c32:	8f b9       	out	0x0f, r24	; 15
  while (bit_is_clear(SPSR,SPIF)){}   //wait till byte is sent out
     c34:	77 9b       	sbis	0x0e, 7	; 14
     c36:	fe cf       	rjmp	.-4      	; 0xc34 <lcd_init+0xd4>
//pulse width for a 4 Mhz clock.
//TODO: make number of nops executed dependent on F_CPU, not hardcoded
//
void strobe_lcd(void){ 
#if SPI_MODE==1
 PORTF |=  0x08; PORTF &= ~0x08; //toggle port F bit 3, LCD strobe trigger
     c38:	80 91 62 00 	lds	r24, 0x0062	; 0x800062 <__TEXT_REGION_LENGTH__+0x7e0062>
     c3c:	88 60       	ori	r24, 0x08	; 8
     c3e:	80 93 62 00 	sts	0x0062, r24	; 0x800062 <__TEXT_REGION_LENGTH__+0x7e0062>
     c42:	80 91 62 00 	lds	r24, 0x0062	; 0x800062 <__TEXT_REGION_LENGTH__+0x7e0062>
     c46:	87 7f       	andi	r24, 0xF7	; 247
     c48:	80 93 62 00 	sts	0x0062, r24	; 0x800062 <__TEXT_REGION_LENGTH__+0x7e0062>
     c4c:	8f e1       	ldi	r24, 0x1F	; 31
     c4e:	9e e4       	ldi	r25, 0x4E	; 78
     c50:	01 97       	sbiw	r24, 0x01	; 1
     c52:	f1 f7       	brne	.-4      	; 0xc50 <lcd_init+0xf0>
     c54:	00 c0       	rjmp	.+0      	; 0xc56 <lcd_init+0xf6>
     c56:	00 00       	nop
// Commnads that require more time have delays built in for them.
//
void send_lcd(uint8_t cmd_or_char, uint8_t byte){

#if SPI_MODE==1
  SPDR = (cmd_or_char)? 0x01 : 0x00;  //send the proper value for intent
     c58:	1f b8       	out	0x0f, r1	; 15
  while (bit_is_clear(SPSR,SPIF)){}   //wait till byte is sent out
     c5a:	77 9b       	sbis	0x0e, 7	; 14
     c5c:	fe cf       	rjmp	.-4      	; 0xc5a <lcd_init+0xfa>
  SPDR = byte;                        //send payload
     c5e:	81 e0       	ldi	r24, 0x01	; 1
     c60:	8f b9       	out	0x0f, r24	; 15
  while (bit_is_clear(SPSR,SPIF)){}   //wait till byte is sent out
     c62:	77 9b       	sbis	0x0e, 7	; 14
     c64:	fe cf       	rjmp	.-4      	; 0xc62 <lcd_init+0x102>
//pulse width for a 4 Mhz clock.
//TODO: make number of nops executed dependent on F_CPU, not hardcoded
//
void strobe_lcd(void){ 
#if SPI_MODE==1
 PORTF |=  0x08; PORTF &= ~0x08; //toggle port F bit 3, LCD strobe trigger
     c66:	80 91 62 00 	lds	r24, 0x0062	; 0x800062 <__TEXT_REGION_LENGTH__+0x7e0062>
     c6a:	88 60       	ori	r24, 0x08	; 8
     c6c:	80 93 62 00 	sts	0x0062, r24	; 0x800062 <__TEXT_REGION_LENGTH__+0x7e0062>
     c70:	80 91 62 00 	lds	r24, 0x0062	; 0x800062 <__TEXT_REGION_LENGTH__+0x7e0062>
     c74:	87 7f       	andi	r24, 0xF7	; 247
     c76:	80 93 62 00 	sts	0x0062, r24	; 0x800062 <__TEXT_REGION_LENGTH__+0x7e0062>
     c7a:	8f e1       	ldi	r24, 0x1F	; 31
     c7c:	9e e4       	ldi	r25, 0x4E	; 78
     c7e:	01 97       	sbiw	r24, 0x01	; 1
     c80:	f1 f7       	brne	.-4      	; 0xc7e <lcd_init+0x11e>
     c82:	00 c0       	rjmp	.+0      	; 0xc84 <lcd_init+0x124>
     c84:	00 00       	nop
// Commnads that require more time have delays built in for them.
//
void send_lcd(uint8_t cmd_or_char, uint8_t byte){

#if SPI_MODE==1
  SPDR = (cmd_or_char)? 0x01 : 0x00;  //send the proper value for intent
     c86:	1f b8       	out	0x0f, r1	; 15
  while (bit_is_clear(SPSR,SPIF)){}   //wait till byte is sent out
     c88:	77 9b       	sbis	0x0e, 7	; 14
     c8a:	fe cf       	rjmp	.-4      	; 0xc88 <lcd_init+0x128>
  SPDR = byte;                        //send payload
     c8c:	86 e0       	ldi	r24, 0x06	; 6
     c8e:	8f b9       	out	0x0f, r24	; 15
  while (bit_is_clear(SPSR,SPIF)){}   //wait till byte is sent out
     c90:	77 9b       	sbis	0x0e, 7	; 14
     c92:	fe cf       	rjmp	.-4      	; 0xc90 <lcd_init+0x130>
//pulse width for a 4 Mhz clock.
//TODO: make number of nops executed dependent on F_CPU, not hardcoded
//
void strobe_lcd(void){ 
#if SPI_MODE==1
 PORTF |=  0x08; PORTF &= ~0x08; //toggle port F bit 3, LCD strobe trigger
     c94:	80 91 62 00 	lds	r24, 0x0062	; 0x800062 <__TEXT_REGION_LENGTH__+0x7e0062>
     c98:	88 60       	ori	r24, 0x08	; 8
     c9a:	80 93 62 00 	sts	0x0062, r24	; 0x800062 <__TEXT_REGION_LENGTH__+0x7e0062>
     c9e:	80 91 62 00 	lds	r24, 0x0062	; 0x800062 <__TEXT_REGION_LENGTH__+0x7e0062>
     ca2:	87 7f       	andi	r24, 0xF7	; 247
     ca4:	80 93 62 00 	sts	0x0062, r24	; 0x800062 <__TEXT_REGION_LENGTH__+0x7e0062>
     ca8:	8f e1       	ldi	r24, 0x1F	; 31
     caa:	9e e4       	ldi	r25, 0x4E	; 78
     cac:	01 97       	sbiw	r24, 0x01	; 1
     cae:	f1 f7       	brne	.-4      	; 0xcac <lcd_init+0x14c>
     cb0:	00 c0       	rjmp	.+0      	; 0xcb2 <lcd_init+0x152>
     cb2:	00 00       	nop
// Commnads that require more time have delays built in for them.
//
void send_lcd(uint8_t cmd_or_char, uint8_t byte){

#if SPI_MODE==1
  SPDR = (cmd_or_char)? 0x01 : 0x00;  //send the proper value for intent
     cb4:	1f b8       	out	0x0f, r1	; 15
  while (bit_is_clear(SPSR,SPIF)){}   //wait till byte is sent out
     cb6:	77 9b       	sbis	0x0e, 7	; 14
     cb8:	fe cf       	rjmp	.-4      	; 0xcb6 <lcd_init+0x156>
  SPDR = byte;                        //send payload
     cba:	8c e0       	ldi	r24, 0x0C	; 12
     cbc:	8f b9       	out	0x0f, r24	; 15
  while (bit_is_clear(SPSR,SPIF)){}   //wait till byte is sent out
     cbe:	77 9b       	sbis	0x0e, 7	; 14
     cc0:	fe cf       	rjmp	.-4      	; 0xcbe <lcd_init+0x15e>
//pulse width for a 4 Mhz clock.
//TODO: make number of nops executed dependent on F_CPU, not hardcoded
//
void strobe_lcd(void){ 
#if SPI_MODE==1
 PORTF |=  0x08; PORTF &= ~0x08; //toggle port F bit 3, LCD strobe trigger
     cc2:	80 91 62 00 	lds	r24, 0x0062	; 0x800062 <__TEXT_REGION_LENGTH__+0x7e0062>
     cc6:	88 60       	ori	r24, 0x08	; 8
     cc8:	80 93 62 00 	sts	0x0062, r24	; 0x800062 <__TEXT_REGION_LENGTH__+0x7e0062>
     ccc:	80 91 62 00 	lds	r24, 0x0062	; 0x800062 <__TEXT_REGION_LENGTH__+0x7e0062>
     cd0:	87 7f       	andi	r24, 0xF7	; 247
     cd2:	80 93 62 00 	sts	0x0062, r24	; 0x800062 <__TEXT_REGION_LENGTH__+0x7e0062>
     cd6:	8f e1       	ldi	r24, 0x1F	; 31
     cd8:	9e e4       	ldi	r25, 0x4E	; 78
     cda:	01 97       	sbiw	r24, 0x01	; 1
     cdc:	f1 f7       	brne	.-4      	; 0xcda <lcd_init+0x17a>
     cde:	00 c0       	rjmp	.+0      	; 0xce0 <lcd_init+0x180>
     ce0:	00 00       	nop
     ce2:	08 95       	ret

00000ce4 <lcd_int32>:
void  lcd_int32(int32_t l,          //number to display
                uint8_t fieldwidth, //width of the field for display
                uint8_t decpos,     //0 if no decimal point, otherwise
                uint8_t bSigned,    //non-zero if the number should be treated as signed 
                uint8_t bZeroFill)  //non-zero if a specified fieldwidth is to be zero filled
{
     ce4:	4f 92       	push	r4
     ce6:	5f 92       	push	r5
     ce8:	6f 92       	push	r6
     cea:	7f 92       	push	r7
     cec:	8f 92       	push	r8
     cee:	9f 92       	push	r9
     cf0:	af 92       	push	r10
     cf2:	bf 92       	push	r11
     cf4:	cf 92       	push	r12
     cf6:	df 92       	push	r13
     cf8:	ef 92       	push	r14
     cfa:	ff 92       	push	r15
     cfc:	0f 93       	push	r16
     cfe:	1f 93       	push	r17
     d00:	cf 93       	push	r28
     d02:	df 93       	push	r29
     d04:	cd b7       	in	r28, 0x3d	; 61
     d06:	de b7       	in	r29, 0x3e	; 62
     d08:	69 97       	sbiw	r28, 0x19	; 25
     d0a:	0f b6       	in	r0, 0x3f	; 63
     d0c:	f8 94       	cli
     d0e:	de bf       	out	0x3e, r29	; 62
     d10:	0f be       	out	0x3f, r0	; 63
     d12:	cd bf       	out	0x3d, r28	; 61
     d14:	14 2f       	mov	r17, r20
     d16:	42 2e       	mov	r4, r18
     d18:	5e 2c       	mov	r5, r14
      char    fillch;
      ldiv_t  qr;

      qr.quot = l; // initialize the quotient 

      if (bSigned){
     d1a:	00 23       	and	r16, r16
     d1c:	79 f0       	breq	.+30     	; 0xd3c <lcd_int32+0x58>
        bSigned = (qr.quot<0);
     d1e:	6b 01       	movw	r12, r22
     d20:	7c 01       	movw	r14, r24
     d22:	cc 24       	eor	r12, r12
     d24:	f7 fc       	sbrc	r15, 7
     d26:	c3 94       	inc	r12
     d28:	dd 24       	eor	r13, r13
     d2a:	ee 24       	eor	r14, r14
     d2c:	ff 24       	eor	r15, r15
     d2e:	0c 2d       	mov	r16, r12
        qr.quot = labs(qr.quot);
     d30:	6b 01       	movw	r12, r22
     d32:	7c 01       	movw	r14, r24
     d34:	97 fd       	sbrc	r25, 7
     d36:	a3 c0       	rjmp	.+326    	; 0xe7e <lcd_int32+0x19a>
     d38:	c7 01       	movw	r24, r14
     d3a:	b6 01       	movw	r22, r12
      }

      // convert the digits to the right of the decimal point 
      if (decpos){
     d3c:	44 20       	and	r4, r4
     d3e:	09 f4       	brne	.+2      	; 0xd42 <lcd_int32+0x5e>
     d40:	96 c0       	rjmp	.+300    	; 0xe6e <lcd_int32+0x18a>
     d42:	9e 01       	movw	r18, r28
     d44:	2f 5f       	subi	r18, 0xFF	; 255
     d46:	3f 4f       	sbci	r19, 0xFF	; 255
     d48:	59 01       	movw	r10, r18
     d4a:	49 01       	movw	r8, r18
     d4c:	66 24       	eor	r6, r6
     d4e:	6a 94       	dec	r6
     d50:	64 0c       	add	r6, r4
     d52:	71 2c       	mov	r7, r1
     d54:	3f ef       	ldi	r19, 0xFF	; 255
     d56:	63 1a       	sub	r6, r19
     d58:	73 0a       	sbc	r7, r19
     d5a:	6a 0c       	add	r6, r10
     d5c:	7b 1c       	adc	r7, r11
        for (; decpos ; decpos--){
          qr = ldiv(qr.quot, 10);
     d5e:	2a e0       	ldi	r18, 0x0A	; 10
     d60:	30 e0       	ldi	r19, 0x00	; 0
     d62:	40 e0       	ldi	r20, 0x00	; 0
     d64:	50 e0       	ldi	r21, 0x00	; 0
     d66:	0e 94 de 08 	call	0x11bc	; 0x11bc <__divmodsi4>
     d6a:	e6 2f       	mov	r30, r22
     d6c:	2a 8b       	std	Y+18, r18	; 0x12
     d6e:	3b 8b       	std	Y+19, r19	; 0x13
     d70:	4c 8b       	std	Y+20, r20	; 0x14
     d72:	5d 8b       	std	Y+21, r21	; 0x15
     d74:	6a 89       	ldd	r22, Y+18	; 0x12
     d76:	7b 89       	ldd	r23, Y+19	; 0x13
     d78:	8c 89       	ldd	r24, Y+20	; 0x14
     d7a:	9d 89       	ldd	r25, Y+21	; 0x15
          sline[i++] = qr.rem + '0';
     d7c:	20 e3       	ldi	r18, 0x30	; 48
     d7e:	2e 0f       	add	r18, r30
     d80:	f4 01       	movw	r30, r8
     d82:	21 93       	st	Z+, r18
     d84:	4f 01       	movw	r8, r30
        qr.quot = labs(qr.quot);
      }

      // convert the digits to the right of the decimal point 
      if (decpos){
        for (; decpos ; decpos--){
     d86:	6e 16       	cp	r6, r30
     d88:	7f 06       	cpc	r7, r31
     d8a:	49 f7       	brne	.-46     	; 0xd5e <lcd_int32+0x7a>
          qr = ldiv(qr.quot, 10);
          sline[i++] = qr.rem + '0';
        }
        sline[i++] = '.';
     d8c:	99 24       	eor	r9, r9
     d8e:	93 94       	inc	r9
     d90:	94 0c       	add	r9, r4
     d92:	f5 01       	movw	r30, r10
     d94:	e4 0d       	add	r30, r4
     d96:	f1 1d       	adc	r31, r1
     d98:	2e e2       	ldi	r18, 0x2E	; 46
     d9a:	20 83       	st	Z, r18
      }

      // convert the digits to the left of the decimal point 
      do{
          qr = ldiv(qr.quot, 10);
     d9c:	2a e0       	ldi	r18, 0x0A	; 10
     d9e:	30 e0       	ldi	r19, 0x00	; 0
     da0:	40 e0       	ldi	r20, 0x00	; 0
     da2:	50 e0       	ldi	r21, 0x00	; 0
     da4:	0e 94 de 08 	call	0x11bc	; 0x11bc <__divmodsi4>
     da8:	e6 2f       	mov	r30, r22
     daa:	2a 8b       	std	Y+18, r18	; 0x12
     dac:	3b 8b       	std	Y+19, r19	; 0x13
     dae:	4c 8b       	std	Y+20, r20	; 0x14
     db0:	5d 8b       	std	Y+21, r21	; 0x15
     db2:	6e 8b       	std	Y+22, r22	; 0x16
     db4:	7f 8b       	std	Y+23, r23	; 0x17
     db6:	88 8f       	std	Y+24, r24	; 0x18
     db8:	99 8f       	std	Y+25, r25	; 0x19
     dba:	6a 89       	ldd	r22, Y+18	; 0x12
     dbc:	7b 89       	ldd	r23, Y+19	; 0x13
     dbe:	8c 89       	ldd	r24, Y+20	; 0x14
     dc0:	9d 89       	ldd	r25, Y+21	; 0x15
          sline[i++] = qr.rem + '0';
     dc2:	31 e0       	ldi	r19, 0x01	; 1
     dc4:	39 0d       	add	r19, r9
     dc6:	d5 01       	movw	r26, r10
     dc8:	a9 0d       	add	r26, r9
     dca:	b1 1d       	adc	r27, r1
     dcc:	e0 5d       	subi	r30, 0xD0	; 208
     dce:	ec 93       	st	X, r30
     dd0:	93 2e       	mov	r9, r19
        }while(qr.quot);
     dd2:	61 15       	cp	r22, r1
     dd4:	71 05       	cpc	r23, r1
     dd6:	81 05       	cpc	r24, r1
     dd8:	91 05       	cpc	r25, r1
     dda:	01 f7       	brne	.-64     	; 0xd9c <lcd_int32+0xb8>

      // fill the whole field if a width was specified
      if (fieldwidth){
     ddc:	11 23       	and	r17, r17
     dde:	61 f0       	breq	.+24     	; 0xdf8 <lcd_int32+0x114>
        fillch = bZeroFill? '0': ' '; // determine the fill character
     de0:	51 10       	cpse	r5, r1
     de2:	4b c0       	rjmp	.+150    	; 0xe7a <lcd_int32+0x196>
     de4:	90 e2       	ldi	r25, 0x20	; 32
        for (; i<fieldwidth ; ){sline[i++] = fillch;}
     de6:	31 17       	cp	r19, r17
     de8:	38 f4       	brcc	.+14     	; 0xdf8 <lcd_int32+0x114>
     dea:	f5 01       	movw	r30, r10
     dec:	e3 0f       	add	r30, r19
     dee:	f1 1d       	adc	r31, r1
     df0:	90 83       	st	Z, r25
     df2:	3f 5f       	subi	r19, 0xFF	; 255
     df4:	13 13       	cpse	r17, r19
     df6:	f9 cf       	rjmp	.-14     	; 0xdea <lcd_int32+0x106>
      }

      // output the sign, if we need to
      if (bSigned){sline[i++] = '-';}
     df8:	00 23       	and	r16, r16
     dfa:	31 f0       	breq	.+12     	; 0xe08 <lcd_int32+0x124>
     dfc:	f5 01       	movw	r30, r10
     dfe:	e3 0f       	add	r30, r19
     e00:	f1 1d       	adc	r31, r1
     e02:	9d e2       	ldi	r25, 0x2D	; 45
     e04:	90 83       	st	Z, r25
     e06:	3f 5f       	subi	r19, 0xFF	; 255
// Commnads that require more time have delays built in for them.
//
void send_lcd(uint8_t cmd_or_char, uint8_t byte){

#if SPI_MODE==1
  SPDR = (cmd_or_char)? 0x01 : 0x00;  //send the proper value for intent
     e08:	21 e0       	ldi	r18, 0x01	; 1

      // output the sign, if we need to
      if (bSigned){sline[i++] = '-';}

      // now output the formatted number
      do{send_lcd(CHAR_BYTE, sline[--i]); _delay_us(40);} while(i);
     e0a:	31 50       	subi	r19, 0x01	; 1
     e0c:	f5 01       	movw	r30, r10
     e0e:	e3 0f       	add	r30, r19
     e10:	f1 1d       	adc	r31, r1
     e12:	90 81       	ld	r25, Z
// Commnads that require more time have delays built in for them.
//
void send_lcd(uint8_t cmd_or_char, uint8_t byte){

#if SPI_MODE==1
  SPDR = (cmd_or_char)? 0x01 : 0x00;  //send the proper value for intent
     e14:	2f b9       	out	0x0f, r18	; 15
  while (bit_is_clear(SPSR,SPIF)){}   //wait till byte is sent out
     e16:	77 9b       	sbis	0x0e, 7	; 14
     e18:	fe cf       	rjmp	.-4      	; 0xe16 <lcd_int32+0x132>
  SPDR = byte;                        //send payload
     e1a:	9f b9       	out	0x0f, r25	; 15
  while (bit_is_clear(SPSR,SPIF)){}   //wait till byte is sent out
     e1c:	77 9b       	sbis	0x0e, 7	; 14
     e1e:	fe cf       	rjmp	.-4      	; 0xe1c <lcd_int32+0x138>
//pulse width for a 4 Mhz clock.
//TODO: make number of nops executed dependent on F_CPU, not hardcoded
//
void strobe_lcd(void){ 
#if SPI_MODE==1
 PORTF |=  0x08; PORTF &= ~0x08; //toggle port F bit 3, LCD strobe trigger
     e20:	90 91 62 00 	lds	r25, 0x0062	; 0x800062 <__TEXT_REGION_LENGTH__+0x7e0062>
     e24:	98 60       	ori	r25, 0x08	; 8
     e26:	90 93 62 00 	sts	0x0062, r25	; 0x800062 <__TEXT_REGION_LENGTH__+0x7e0062>
     e2a:	90 91 62 00 	lds	r25, 0x0062	; 0x800062 <__TEXT_REGION_LENGTH__+0x7e0062>
     e2e:	97 7f       	andi	r25, 0xF7	; 247
     e30:	90 93 62 00 	sts	0x0062, r25	; 0x800062 <__TEXT_REGION_LENGTH__+0x7e0062>
	#else
		//round up by default
		__ticks_dc = (uint32_t)(ceil(fabs(__tmp)));
	#endif

	__builtin_avr_delay_cycles(__ticks_dc);
     e34:	85 ed       	ldi	r24, 0xD5	; 213
     e36:	8a 95       	dec	r24
     e38:	f1 f7       	brne	.-4      	; 0xe36 <lcd_int32+0x152>
     e3a:	00 00       	nop

      // output the sign, if we need to
      if (bSigned){sline[i++] = '-';}

      // now output the formatted number
      do{send_lcd(CHAR_BYTE, sline[--i]); _delay_us(40);} while(i);
     e3c:	31 11       	cpse	r19, r1
     e3e:	e5 cf       	rjmp	.-54     	; 0xe0a <lcd_int32+0x126>

}
     e40:	69 96       	adiw	r28, 0x19	; 25
     e42:	0f b6       	in	r0, 0x3f	; 63
     e44:	f8 94       	cli
     e46:	de bf       	out	0x3e, r29	; 62
     e48:	0f be       	out	0x3f, r0	; 63
     e4a:	cd bf       	out	0x3d, r28	; 61
     e4c:	df 91       	pop	r29
     e4e:	cf 91       	pop	r28
     e50:	1f 91       	pop	r17
     e52:	0f 91       	pop	r16
     e54:	ff 90       	pop	r15
     e56:	ef 90       	pop	r14
     e58:	df 90       	pop	r13
     e5a:	cf 90       	pop	r12
     e5c:	bf 90       	pop	r11
     e5e:	af 90       	pop	r10
     e60:	9f 90       	pop	r9
     e62:	8f 90       	pop	r8
     e64:	7f 90       	pop	r7
     e66:	6f 90       	pop	r6
     e68:	5f 90       	pop	r5
     e6a:	4f 90       	pop	r4
     e6c:	08 95       	ret
                uint8_t decpos,     //0 if no decimal point, otherwise
                uint8_t bSigned,    //non-zero if the number should be treated as signed 
                uint8_t bZeroFill)  //non-zero if a specified fieldwidth is to be zero filled
{
      char    sline[NUM_LCD_CHARS+1];
      uint8_t i=0;
     e6e:	91 2c       	mov	r9, r1
     e70:	9e 01       	movw	r18, r28
     e72:	2f 5f       	subi	r18, 0xFF	; 255
     e74:	3f 4f       	sbci	r19, 0xFF	; 255
     e76:	59 01       	movw	r10, r18
     e78:	91 cf       	rjmp	.-222    	; 0xd9c <lcd_int32+0xb8>
          sline[i++] = qr.rem + '0';
        }while(qr.quot);

      // fill the whole field if a width was specified
      if (fieldwidth){
        fillch = bZeroFill? '0': ' '; // determine the fill character
     e7a:	90 e3       	ldi	r25, 0x30	; 48
     e7c:	b4 cf       	rjmp	.-152    	; 0xde6 <lcd_int32+0x102>

      qr.quot = l; // initialize the quotient 

      if (bSigned){
        bSigned = (qr.quot<0);
        qr.quot = labs(qr.quot);
     e7e:	f0 94       	com	r15
     e80:	e0 94       	com	r14
     e82:	d0 94       	com	r13
     e84:	c0 94       	com	r12
     e86:	c1 1c       	adc	r12, r1
     e88:	d1 1c       	adc	r13, r1
     e8a:	e1 1c       	adc	r14, r1
     e8c:	f1 1c       	adc	r15, r1
     e8e:	54 cf       	rjmp	.-344    	; 0xd38 <lcd_int32+0x54>

00000e90 <lcd_int16>:
//**************************************************************************************
void    lcd_int16(int16_t l, 
                  uint8_t fieldwidth, 
                  uint8_t decpos, 
                  uint8_t bZeroFill)
{
     e90:	5f 92       	push	r5
     e92:	6f 92       	push	r6
     e94:	7f 92       	push	r7
     e96:	8f 92       	push	r8
     e98:	9f 92       	push	r9
     e9a:	af 92       	push	r10
     e9c:	bf 92       	push	r11
     e9e:	cf 92       	push	r12
     ea0:	df 92       	push	r13
     ea2:	ef 92       	push	r14
     ea4:	ff 92       	push	r15
     ea6:	0f 93       	push	r16
     ea8:	1f 93       	push	r17
     eaa:	cf 93       	push	r28
     eac:	df 93       	push	r29
     eae:	cd b7       	in	r28, 0x3d	; 61
     eb0:	de b7       	in	r29, 0x3e	; 62
     eb2:	61 97       	sbiw	r28, 0x11	; 17
     eb4:	0f b6       	in	r0, 0x3f	; 63
     eb6:	f8 94       	cli
     eb8:	de bf       	out	0x3e, r29	; 62
     eba:	0f be       	out	0x3f, r0	; 63
     ebc:	cd bf       	out	0x3d, r28	; 61
     ebe:	5c 01       	movw	r10, r24
     ec0:	96 2e       	mov	r9, r22
     ec2:	54 2e       	mov	r5, r20
     ec4:	62 2e       	mov	r6, r18
        uint8_t bSigned;

        // initialize the quotient 
        qr.quot = l;

        if ( (bSigned=(qr.quot<0)) )
     ec6:	8b 2c       	mov	r8, r11
     ec8:	88 1c       	adc	r8, r8
     eca:	88 24       	eor	r8, r8
     ecc:	88 1c       	adc	r8, r8
     ece:	78 2c       	mov	r7, r8
     ed0:	9c 01       	movw	r18, r24
     ed2:	97 fd       	sbrc	r25, 7
     ed4:	9d c0       	rjmp	.+314    	; 0x1010 <__DATA_REGION_LENGTH__+0x10>
                qr.quot = -qr.quot;

        // convert the digits to the right of the decimal point 
        if (decpos){
     ed6:	55 20       	and	r5, r5
     ed8:	09 f4       	brne	.+2      	; 0xedc <lcd_int16+0x4c>
     eda:	8e c0       	rjmp	.+284    	; 0xff8 <lcd_int16+0x168>
     edc:	8e 01       	movw	r16, r28
     ede:	0f 5f       	subi	r16, 0xFF	; 255
     ee0:	1f 4f       	sbci	r17, 0xFF	; 255
     ee2:	78 01       	movw	r14, r16
     ee4:	cc 24       	eor	r12, r12
     ee6:	ca 94       	dec	r12
     ee8:	c5 0c       	add	r12, r5
     eea:	d1 2c       	mov	r13, r1
     eec:	8f ef       	ldi	r24, 0xFF	; 255
     eee:	c8 1a       	sub	r12, r24
     ef0:	d8 0a       	sbc	r13, r24
     ef2:	c0 0e       	add	r12, r16
     ef4:	d1 1e       	adc	r13, r17
          for (; decpos ; decpos--){
            qr = div(qr.quot, 10);
     ef6:	6a e0       	ldi	r22, 0x0A	; 10
     ef8:	70 e0       	ldi	r23, 0x00	; 0
     efa:	c9 01       	movw	r24, r18
     efc:	0e 94 ca 08 	call	0x1194	; 0x1194 <__divmodhi4>
     f00:	46 2f       	mov	r20, r22
     f02:	24 2f       	mov	r18, r20
     f04:	37 2f       	mov	r19, r23
            sline[i++] = qr.rem + '0';
     f06:	80 5d       	subi	r24, 0xD0	; 208
     f08:	f7 01       	movw	r30, r14
     f0a:	81 93       	st	Z+, r24
     f0c:	7f 01       	movw	r14, r30
        if ( (bSigned=(qr.quot<0)) )
                qr.quot = -qr.quot;

        // convert the digits to the right of the decimal point 
        if (decpos){
          for (; decpos ; decpos--){
     f0e:	ec 15       	cp	r30, r12
     f10:	fd 05       	cpc	r31, r13
     f12:	89 f7       	brne	.-30     	; 0xef6 <lcd_int16+0x66>
            qr = div(qr.quot, 10);
            sline[i++] = qr.rem + '0';
          }
          sline[i++] = '.';
     f14:	ff 24       	eor	r15, r15
     f16:	f3 94       	inc	r15
     f18:	f5 0c       	add	r15, r5
     f1a:	f8 01       	movw	r30, r16
     f1c:	e5 0d       	add	r30, r5
     f1e:	f1 1d       	adc	r31, r1
     f20:	8e e2       	ldi	r24, 0x2E	; 46
     f22:	80 83       	st	Z, r24
     f24:	01 c0       	rjmp	.+2      	; 0xf28 <lcd_int16+0x98>

        // convert the digits to the left of the decimal point 
        do
        {
                qr = div(qr.quot, 10);
                sline[i++] = qr.rem + '0';
     f26:	f9 2e       	mov	r15, r25
        }

        // convert the digits to the left of the decimal point 
        do
        {
                qr = div(qr.quot, 10);
     f28:	6a e0       	ldi	r22, 0x0A	; 10
     f2a:	70 e0       	ldi	r23, 0x00	; 0
     f2c:	c9 01       	movw	r24, r18
     f2e:	0e 94 ca 08 	call	0x1194	; 0x1194 <__divmodhi4>
     f32:	46 2f       	mov	r20, r22
     f34:	24 2f       	mov	r18, r20
     f36:	37 2f       	mov	r19, r23
                sline[i++] = qr.rem + '0';
     f38:	91 e0       	ldi	r25, 0x01	; 1
     f3a:	9f 0d       	add	r25, r15
     f3c:	f8 01       	movw	r30, r16
     f3e:	ef 0d       	add	r30, r15
     f40:	f1 1d       	adc	r31, r1
     f42:	80 5d       	subi	r24, 0xD0	; 208
     f44:	80 83       	st	Z, r24
        }
        while(qr.quot);
     f46:	21 15       	cp	r18, r1
     f48:	31 05       	cpc	r19, r1
     f4a:	69 f7       	brne	.-38     	; 0xf26 <lcd_int16+0x96>

        // add the sign now if we don't pad the number with zeros 
        if (!bZeroFill && bSigned)
     f4c:	61 10       	cpse	r6, r1
     f4e:	59 c0       	rjmp	.+178    	; 0x1002 <__DATA_REGION_LENGTH__+0x2>
     f50:	b7 fc       	sbrc	r11, 7
     f52:	63 c0       	rjmp	.+198    	; 0x101a <__DATA_REGION_LENGTH__+0x1a>
                sline[i++] = '-';
                bSigned = 0;
        }

        // fill the whole field if a width was specified 
        if (fieldwidth){
     f54:	99 20       	and	r9, r9
     f56:	b1 f0       	breq	.+44     	; 0xf84 <lcd_int16+0xf4>
     f58:	68 2d       	mov	r22, r8
     f5a:	70 e0       	ldi	r23, 0x00	; 0
          // determine the fill character 
          fillch = bZeroFill? '0': ' ';
     f5c:	80 e2       	ldi	r24, 0x20	; 32
          for (; i<(fieldwidth-bSigned) ; ){ sline[i++] = fillch;}
     f5e:	29 2f       	mov	r18, r25
     f60:	30 e0       	ldi	r19, 0x00	; 0
     f62:	49 2d       	mov	r20, r9
     f64:	50 e0       	ldi	r21, 0x00	; 0
     f66:	46 1b       	sub	r20, r22
     f68:	57 0b       	sbc	r21, r23
     f6a:	24 17       	cp	r18, r20
     f6c:	35 07       	cpc	r19, r21
     f6e:	54 f4       	brge	.+20     	; 0xf84 <lcd_int16+0xf4>
     f70:	9f 5f       	subi	r25, 0xFF	; 255
     f72:	f8 01       	movw	r30, r16
     f74:	e2 0f       	add	r30, r18
     f76:	f3 1f       	adc	r31, r19
     f78:	80 83       	st	Z, r24
     f7a:	29 2f       	mov	r18, r25
     f7c:	30 e0       	ldi	r19, 0x00	; 0
     f7e:	24 17       	cp	r18, r20
     f80:	35 07       	cpc	r19, r21
     f82:	b4 f3       	brlt	.-20     	; 0xf70 <lcd_int16+0xe0>
        }

        // output the sign, if we need to 
        if (bSigned){sline[i++] = '-';}
     f84:	77 20       	and	r7, r7
     f86:	31 f0       	breq	.+12     	; 0xf94 <lcd_int16+0x104>
     f88:	f8 01       	movw	r30, r16
     f8a:	e9 0f       	add	r30, r25
     f8c:	f1 1d       	adc	r31, r1
     f8e:	8d e2       	ldi	r24, 0x2D	; 45
     f90:	80 83       	st	Z, r24
     f92:	9f 5f       	subi	r25, 0xFF	; 255
// Commnads that require more time have delays built in for them.
//
void send_lcd(uint8_t cmd_or_char, uint8_t byte){

#if SPI_MODE==1
  SPDR = (cmd_or_char)? 0x01 : 0x00;  //send the proper value for intent
     f94:	21 e0       	ldi	r18, 0x01	; 1

        // output the sign, if we need to 
        if (bSigned){sline[i++] = '-';}

        // now output the formatted number 
            do{send_lcd(CHAR_BYTE, sline[--i]); _delay_us(40);} while(i);
     f96:	91 50       	subi	r25, 0x01	; 1
     f98:	f8 01       	movw	r30, r16
     f9a:	e9 0f       	add	r30, r25
     f9c:	f1 1d       	adc	r31, r1
     f9e:	80 81       	ld	r24, Z
// Commnads that require more time have delays built in for them.
//
void send_lcd(uint8_t cmd_or_char, uint8_t byte){

#if SPI_MODE==1
  SPDR = (cmd_or_char)? 0x01 : 0x00;  //send the proper value for intent
     fa0:	2f b9       	out	0x0f, r18	; 15
  while (bit_is_clear(SPSR,SPIF)){}   //wait till byte is sent out
     fa2:	77 9b       	sbis	0x0e, 7	; 14
     fa4:	fe cf       	rjmp	.-4      	; 0xfa2 <lcd_int16+0x112>
  SPDR = byte;                        //send payload
     fa6:	8f b9       	out	0x0f, r24	; 15
  while (bit_is_clear(SPSR,SPIF)){}   //wait till byte is sent out
     fa8:	77 9b       	sbis	0x0e, 7	; 14
     faa:	fe cf       	rjmp	.-4      	; 0xfa8 <lcd_int16+0x118>
//pulse width for a 4 Mhz clock.
//TODO: make number of nops executed dependent on F_CPU, not hardcoded
//
void strobe_lcd(void){ 
#if SPI_MODE==1
 PORTF |=  0x08; PORTF &= ~0x08; //toggle port F bit 3, LCD strobe trigger
     fac:	80 91 62 00 	lds	r24, 0x0062	; 0x800062 <__TEXT_REGION_LENGTH__+0x7e0062>
     fb0:	88 60       	ori	r24, 0x08	; 8
     fb2:	80 93 62 00 	sts	0x0062, r24	; 0x800062 <__TEXT_REGION_LENGTH__+0x7e0062>
     fb6:	80 91 62 00 	lds	r24, 0x0062	; 0x800062 <__TEXT_REGION_LENGTH__+0x7e0062>
     fba:	87 7f       	andi	r24, 0xF7	; 247
     fbc:	80 93 62 00 	sts	0x0062, r24	; 0x800062 <__TEXT_REGION_LENGTH__+0x7e0062>
     fc0:	f5 ed       	ldi	r31, 0xD5	; 213
     fc2:	fa 95       	dec	r31
     fc4:	f1 f7       	brne	.-4      	; 0xfc2 <lcd_int16+0x132>
     fc6:	00 00       	nop

        // output the sign, if we need to 
        if (bSigned){sline[i++] = '-';}

        // now output the formatted number 
            do{send_lcd(CHAR_BYTE, sline[--i]); _delay_us(40);} while(i);
     fc8:	91 11       	cpse	r25, r1
     fca:	e5 cf       	rjmp	.-54     	; 0xf96 <lcd_int16+0x106>
}
     fcc:	61 96       	adiw	r28, 0x11	; 17
     fce:	0f b6       	in	r0, 0x3f	; 63
     fd0:	f8 94       	cli
     fd2:	de bf       	out	0x3e, r29	; 62
     fd4:	0f be       	out	0x3f, r0	; 63
     fd6:	cd bf       	out	0x3d, r28	; 61
     fd8:	df 91       	pop	r29
     fda:	cf 91       	pop	r28
     fdc:	1f 91       	pop	r17
     fde:	0f 91       	pop	r16
     fe0:	ff 90       	pop	r15
     fe2:	ef 90       	pop	r14
     fe4:	df 90       	pop	r13
     fe6:	cf 90       	pop	r12
     fe8:	bf 90       	pop	r11
     fea:	af 90       	pop	r10
     fec:	9f 90       	pop	r9
     fee:	8f 90       	pop	r8
     ff0:	7f 90       	pop	r7
     ff2:	6f 90       	pop	r6
     ff4:	5f 90       	pop	r5
     ff6:	08 95       	ret
                  uint8_t fieldwidth, 
                  uint8_t decpos, 
                  uint8_t bZeroFill)
{
        char    sline[NUM_LCD_CHARS+1];
        uint8_t i=0;
     ff8:	f1 2c       	mov	r15, r1
     ffa:	8e 01       	movw	r16, r28
     ffc:	0f 5f       	subi	r16, 0xFF	; 255
     ffe:	1f 4f       	sbci	r17, 0xFF	; 255
    1000:	93 cf       	rjmp	.-218    	; 0xf28 <lcd_int16+0x98>
                sline[i++] = '-';
                bSigned = 0;
        }

        // fill the whole field if a width was specified 
        if (fieldwidth){
    1002:	99 20       	and	r9, r9
    1004:	09 f4       	brne	.+2      	; 0x1008 <__DATA_REGION_LENGTH__+0x8>
    1006:	be cf       	rjmp	.-132    	; 0xf84 <lcd_int16+0xf4>
    1008:	68 2d       	mov	r22, r8
    100a:	70 e0       	ldi	r23, 0x00	; 0
          // determine the fill character 
          fillch = bZeroFill? '0': ' ';
    100c:	80 e3       	ldi	r24, 0x30	; 48
    100e:	a7 cf       	rjmp	.-178    	; 0xf5e <lcd_int16+0xce>
    1010:	22 27       	eor	r18, r18
    1012:	33 27       	eor	r19, r19
    1014:	28 1b       	sub	r18, r24
    1016:	39 0b       	sbc	r19, r25
    1018:	5e cf       	rjmp	.-324    	; 0xed6 <lcd_int16+0x46>
        while(qr.quot);

        // add the sign now if we don't pad the number with zeros 
        if (!bZeroFill && bSigned)
        {
                sline[i++] = '-';
    101a:	f3 94       	inc	r15
    101c:	f3 94       	inc	r15
    101e:	f8 01       	movw	r30, r16
    1020:	e9 0f       	add	r30, r25
    1022:	f1 1d       	adc	r31, r1
    1024:	8d e2       	ldi	r24, 0x2D	; 45
    1026:	80 83       	st	Z, r24
                bSigned = 0;
        }

        // fill the whole field if a width was specified 
        if (fieldwidth){
    1028:	99 20       	and	r9, r9
    102a:	59 f0       	breq	.+22     	; 0x1042 <__DATA_REGION_LENGTH__+0x42>
          // determine the fill character 
          fillch = bZeroFill? '0': ' ';
          for (; i<(fieldwidth-bSigned) ; ){ sline[i++] = fillch;}
    102c:	2f 2d       	mov	r18, r15
    102e:	30 e0       	ldi	r19, 0x00	; 0
    1030:	49 2d       	mov	r20, r9
    1032:	50 e0       	ldi	r21, 0x00	; 0
    1034:	24 17       	cp	r18, r20
    1036:	35 07       	cpc	r19, r21
    1038:	24 f4       	brge	.+8      	; 0x1042 <__DATA_REGION_LENGTH__+0x42>
        while(qr.quot);

        // add the sign now if we don't pad the number with zeros 
        if (!bZeroFill && bSigned)
        {
                sline[i++] = '-';
    103a:	9f 2d       	mov	r25, r15
                bSigned = 0;
    103c:	71 2c       	mov	r7, r1
        }

        // fill the whole field if a width was specified 
        if (fieldwidth){
          // determine the fill character 
          fillch = bZeroFill? '0': ' ';
    103e:	80 e2       	ldi	r24, 0x20	; 32
    1040:	97 cf       	rjmp	.-210    	; 0xf70 <lcd_int16+0xe0>
        while(qr.quot);

        // add the sign now if we don't pad the number with zeros 
        if (!bZeroFill && bSigned)
        {
                sline[i++] = '-';
    1042:	9f 2d       	mov	r25, r15
    1044:	a7 cf       	rjmp	.-178    	; 0xf94 <lcd_int16+0x104>

00001046 <main>:
void alarmDisplay();
void buttonPress(uint8_t);

int main()
{
    DDRB = 0xF0; //set port B bits 4-7 B as outputs
    1046:	80 ef       	ldi	r24, 0xF0	; 240
    1048:	87 bb       	out	0x17, r24	; 23
    DDRE |= 0b01000000; // set E6 to output
    104a:	16 9a       	sbi	0x02, 6	; 2
    DDRD |= 0b00001100; // slave select pins
    104c:	81 b3       	in	r24, 0x11	; 17
    104e:	8c 60       	ori	r24, 0x0C	; 12
    1050:	81 bb       	out	0x11, r24	; 17

    PORTB &= ~(1 << PORTB7); 
    1052:	c7 98       	cbi	0x18, 7	; 24
//Initalizes timer/counter0 (TCNT0). TCNT0 is running in async mode
//with external 32khz crystal.  Runs in normal mode with no prescaling.
//Interrupt occurs at overflow 0xFF.
//
void tcnt0_init(void){
    ASSR   |=  (1 << AS0); //ext osc TOSC
    1054:	80 b7       	in	r24, 0x30	; 48
    1056:	88 60       	ori	r24, 0x08	; 8
    1058:	80 bf       	out	0x30, r24	; 48
    TIMSK  |=  (1 << TOIE0); //enable TCNT0 overflow interrupt
    105a:	87 b7       	in	r24, 0x37	; 55
    105c:	81 60       	ori	r24, 0x01	; 1
    105e:	87 bf       	out	0x37, r24	; 55
    TCCR0  |=  (1 << CS00); //normal mode, no prescale
    1060:	83 b7       	in	r24, 0x33	; 51
    1062:	81 60       	ori	r24, 0x01	; 1
    1064:	83 bf       	out	0x33, r24	; 51
//external device specific initalizations.  Sets up SPI to be:                        
//master mode, clock=clk/2, cycle half phase, low polarity, MSB first
//interrupts disabled, poll SPIF bit in SPSR to check xmit completion
/***********************************************************************/
void spi_init(void){
    DDRB  |=   0x07; //Turn on SS, MOSI, SCLK
    1066:	87 b3       	in	r24, 0x17	; 23
    1068:	87 60       	ori	r24, 0x07	; 7
    106a:	87 bb       	out	0x17, r24	; 23
    SPCR  |=   (1 << SPE) | (1 << MSTR); //enable SPI, master mode 
    106c:	8d b1       	in	r24, 0x0d	; 13
    106e:	80 65       	ori	r24, 0x50	; 80
    1070:	8d b9       	out	0x0d, r24	; 13
    SPSR  |=   (1 << SPI2X); // double speed operation
    1072:	70 9a       	sbi	0x0e, 0	; 14

    PORTB &= ~(1 << PORTB7); 

    tcnt0_init();  //initalize counter timer zero
    spi_init();    //initalize SPI port
    sei();         //enable interrupts before entering loop
    1074:	78 94       	sei
// setting the dec_to_7seg array for which segment to turn off in order to see
// the digit on the LED display. 
/******************************************************************************/
void set_dec_to_7seg()
{
    dec_to_7seg[0] = ~(ZERO);
    1076:	80 ec       	ldi	r24, 0xC0	; 192
    1078:	80 93 3f 01 	sts	0x013F, r24	; 0x80013f <dec_to_7seg>
    dec_to_7seg[1] = ~(ONE);
    107c:	89 ef       	ldi	r24, 0xF9	; 249
    107e:	80 93 40 01 	sts	0x0140, r24	; 0x800140 <dec_to_7seg+0x1>
    dec_to_7seg[2] = ~(TWO);
    1082:	84 ea       	ldi	r24, 0xA4	; 164
    1084:	80 93 41 01 	sts	0x0141, r24	; 0x800141 <dec_to_7seg+0x2>
    dec_to_7seg[3] = ~(THREE);
    1088:	80 eb       	ldi	r24, 0xB0	; 176
    108a:	80 93 42 01 	sts	0x0142, r24	; 0x800142 <dec_to_7seg+0x3>
    dec_to_7seg[4] = ~(FOUR);
    108e:	89 e9       	ldi	r24, 0x99	; 153
    1090:	80 93 43 01 	sts	0x0143, r24	; 0x800143 <dec_to_7seg+0x4>
    dec_to_7seg[5] = ~(FIVE);
    1094:	82 e9       	ldi	r24, 0x92	; 146
    1096:	80 93 44 01 	sts	0x0144, r24	; 0x800144 <dec_to_7seg+0x5>
    dec_to_7seg[6] = ~(SIX);
    109a:	82 e8       	ldi	r24, 0x82	; 130
    109c:	80 93 45 01 	sts	0x0145, r24	; 0x800145 <dec_to_7seg+0x6>
    dec_to_7seg[7] = ~(SEVEN);
    10a0:	88 ef       	ldi	r24, 0xF8	; 248
    10a2:	80 93 46 01 	sts	0x0146, r24	; 0x800146 <dec_to_7seg+0x7>
    dec_to_7seg[8] = ~(EIGHT);
    10a6:	80 e8       	ldi	r24, 0x80	; 128
    10a8:	80 93 47 01 	sts	0x0147, r24	; 0x800147 <dec_to_7seg+0x8>
    dec_to_7seg[9] = ~(NINE);
    10ac:	88 e9       	ldi	r24, 0x98	; 152
    10ae:	80 93 48 01 	sts	0x0148, r24	; 0x800148 <dec_to_7seg+0x9>
    dec_to_7seg[10] = ~(COLON);
    10b2:	8c ef       	ldi	r24, 0xFC	; 252
    10b4:	80 93 49 01 	sts	0x0149, r24	; 0x800149 <dec_to_7seg+0xa>
    dec_to_7seg[11] = ~(BLANK);
    10b8:	8f ef       	ldi	r24, 0xFF	; 255
    10ba:	80 93 4a 01 	sts	0x014A, r24	; 0x80014a <dec_to_7seg+0xb>
// This function sets the right value for decoder so that it display the right 
// digit. The index value of the decoder represents the Yx output of the decoder.
/******************************************************************************/
void set_decoder()
{
    decoder[0] = DIGIT4;
    10be:	10 92 37 01 	sts	0x0137, r1	; 0x800137 <decoder>
    decoder[1] = DIGIT3;
    10c2:	80 e1       	ldi	r24, 0x10	; 16
    10c4:	80 93 38 01 	sts	0x0138, r24	; 0x800138 <decoder+0x1>
    decoder[2] = DIS_COLON;
    10c8:	80 e2       	ldi	r24, 0x20	; 32
    10ca:	80 93 39 01 	sts	0x0139, r24	; 0x800139 <decoder+0x2>
    decoder[3] = DIGIT2;
    10ce:	80 e3       	ldi	r24, 0x30	; 48
    10d0:	80 93 3a 01 	sts	0x013A, r24	; 0x80013a <decoder+0x3>
    decoder[4] = DIGIT1;
    10d4:	80 e4       	ldi	r24, 0x40	; 64
    10d6:	80 93 3b 01 	sts	0x013B, r24	; 0x80013b <decoder+0x4>
    decoder[7] = TRI_BUFFER;
    10da:	80 e7       	ldi	r24, 0x70	; 112
    10dc:	80 93 3e 01 	sts	0x013E, r24	; 0x80013e <decoder+0x7>
    sei();         //enable interrupts before entering loop

    set_dec_to_7seg(); // set values for dec_to_7seg array
    set_decoder(); // set values for the decoder array

    lcd_init(); // initalize the lcd display
    10e0:	0e 94 b0 05 	call	0xb60	; 0xb60 <lcd_init>
//takes two 8-bit binary values(hours and minutes) and places the appropriate 
//equivalent 4 digit.
//BCD segment code in the array segment_data for display.
//array is loaded at exit as:  |digit3|digit2|colon|digit1|digit0|
void segclock(){
    segment_data[0] = minutes % 10;
    10e4:	1d ec       	ldi	r17, 0xCD	; 205
// to decoder.
/***************************************************************/

void setDigit()
{
    DDRA = 0xFF; // setting PORT A as an output
    10e6:	0f ef       	ldi	r16, 0xFF	; 255

    while (1)
    {

        // spi 
        PORTD |= 1 << PORTD3; // clock_inh = 1
    10e8:	93 9a       	sbi	0x12, 3	; 18
        PORTE &= 0 << PORTE6; // load sh/ld
    10ea:	83 b1       	in	r24, 0x03	; 3
    10ec:	13 b8       	out	0x03, r1	; 3

        PORTE |= 1 << PORTE6; // sh/ld
    10ee:	1e 9a       	sbi	0x03, 6	; 3
        PORTD &= ~(1 << PORTD3); // clock_inh
    10f0:	93 98       	cbi	0x12, 3	; 18

        SPDR = 0; // writing a random value
    10f2:	1f b8       	out	0x0f, r1	; 15
       
        while (bit_is_clear(SPSR,SPIF)){}
    10f4:	77 9b       	sbis	0x0e, 7	; 14
    10f6:	fe cf       	rjmp	.-4      	; 0x10f4 <main+0xae>
        data = SPDR; // read data
    10f8:	8f b1       	in	r24, 0x0f	; 15
    10fa:	80 93 34 01 	sts	0x0134, r24	; 0x800134 <data>
//                                  barGraph
// Set the mode on the bar graph. 
/******************************************************************************/
void barGraph(){
    
    SPDR = barGraphDisplay;
    10fe:	80 91 35 01 	lds	r24, 0x0135	; 0x800135 <barGraphDisplay>
    1102:	8f b9       	out	0x0f, r24	; 15
    while (bit_is_clear(SPSR,SPIF)){}               //wait till data sent out (while loop)
    1104:	77 9b       	sbis	0x0e, 7	; 14
    1106:	fe cf       	rjmp	.-4      	; 0x1104 <__stack+0x5>
    PORTD |= (1 << PORTD2);          //HC595 output reg - rising edge...
    1108:	92 9a       	sbi	0x12, 2	; 18
    PORTD &= (0 << PORTD2);          //and falling edge
    110a:	82 b3       	in	r24, 0x12	; 18
    110c:	12 ba       	out	0x12, r1	; 18
//takes two 8-bit binary values(hours and minutes) and places the appropriate 
//equivalent 4 digit.
//BCD segment code in the array segment_data for display.
//array is loaded at exit as:  |digit3|digit2|colon|digit1|digit0|
void segclock(){
    segment_data[0] = minutes % 10;
    110e:	90 91 2e 01 	lds	r25, 0x012E	; 0x80012e <minutes>
    1112:	91 9f       	mul	r25, r17
    1114:	81 2d       	mov	r24, r1
    1116:	11 24       	eor	r1, r1
    1118:	86 95       	lsr	r24
    111a:	86 95       	lsr	r24
    111c:	86 95       	lsr	r24
    111e:	2a e0       	ldi	r18, 0x0A	; 10
    1120:	82 9f       	mul	r24, r18
    1122:	90 19       	sub	r25, r0
    1124:	11 24       	eor	r1, r1
    1126:	90 93 4b 01 	sts	0x014B, r25	; 0x80014b <segment_data>
    segment_data[1] = minutes / 10;
    112a:	80 93 4c 01 	sts	0x014C, r24	; 0x80014c <segment_data+0x1>
    segment_data[2] = (colonDisplay == 1) ? 10 : 11;
    112e:	80 91 33 01 	lds	r24, 0x0133	; 0x800133 <colonDisplay>
    1132:	81 30       	cpi	r24, 0x01	; 1
    1134:	69 f1       	breq	.+90     	; 0x1190 <__stack+0x91>
    1136:	8b e0       	ldi	r24, 0x0B	; 11
    1138:	80 93 4d 01 	sts	0x014D, r24	; 0x80014d <segment_data+0x2>
    segment_data[3] = hours % 10;
    113c:	90 91 2d 01 	lds	r25, 0x012D	; 0x80012d <hours>
    1140:	91 9f       	mul	r25, r17
    1142:	81 2d       	mov	r24, r1
    1144:	11 24       	eor	r1, r1
    1146:	86 95       	lsr	r24
    1148:	86 95       	lsr	r24
    114a:	86 95       	lsr	r24
    114c:	2a e0       	ldi	r18, 0x0A	; 10
    114e:	82 9f       	mul	r24, r18
    1150:	90 19       	sub	r25, r0
    1152:	11 24       	eor	r1, r1
    1154:	90 93 4e 01 	sts	0x014E, r25	; 0x80014e <segment_data+0x3>
    segment_data[4] = hours / 10;
    1158:	80 93 4f 01 	sts	0x014F, r24	; 0x80014f <segment_data+0x4>
// to decoder.
/***************************************************************/

void setDigit()
{
    DDRA = 0xFF; // setting PORT A as an output
    115c:	0a bb       	out	0x1a, r16	; 26
    115e:	a7 e3       	ldi	r26, 0x37	; 55
    1160:	b1 e0       	ldi	r27, 0x01	; 1
    1162:	cb e4       	ldi	r28, 0x4B	; 75
    1164:	d1 e0       	ldi	r29, 0x01	; 1
    int i;
    for (i = 0; i < 5; i++)
    { // looping through the segment data and assigning the port the right values.
        PORTB = decoder[i]; // enable the right digit to turn on
    1166:	8d 91       	ld	r24, X+
    1168:	88 bb       	out	0x18, r24	; 24
        PORTA = dec_to_7seg[segment_data[i]]; // turn on the right segments
    116a:	e9 91       	ld	r30, Y+
    116c:	f0 e0       	ldi	r31, 0x00	; 0
    116e:	e1 5c       	subi	r30, 0xC1	; 193
    1170:	fe 4f       	sbci	r31, 0xFE	; 254
    1172:	80 81       	ld	r24, Z
    1174:	8b bb       	out	0x1b, r24	; 27
	#else
		//round up by default
		__ticks_dc = (uint32_t)(ceil(fabs(__tmp)));
	#endif

	__builtin_avr_delay_cycles(__ticks_dc);
    1176:	8f ec       	ldi	r24, 0xCF	; 207
    1178:	97 e0       	ldi	r25, 0x07	; 7
    117a:	01 97       	sbiw	r24, 0x01	; 1
    117c:	f1 f7       	brne	.-4      	; 0x117a <__stack+0x7b>
    117e:	00 c0       	rjmp	.+0      	; 0x1180 <__stack+0x81>
    1180:	00 00       	nop

void setDigit()
{
    DDRA = 0xFF; // setting PORT A as an output
    int i;
    for (i = 0; i < 5; i++)
    1182:	91 e0       	ldi	r25, 0x01	; 1
    1184:	ac 33       	cpi	r26, 0x3C	; 60
    1186:	b9 07       	cpc	r27, r25
    1188:	71 f7       	brne	.-36     	; 0x1166 <__stack+0x67>
        barGraph();
        // end of spi

        segclock();         // set each digit for the clock
        setDigit();         // setting the digit on display
        alarmDisplay();     // display "ALARM" on the LCD display
    118a:	0e 94 ed 01 	call	0x3da	; 0x3da <alarmDisplay>
    } //while
    118e:	ac cf       	rjmp	.-168    	; 0x10e8 <main+0xa2>
//BCD segment code in the array segment_data for display.
//array is loaded at exit as:  |digit3|digit2|colon|digit1|digit0|
void segclock(){
    segment_data[0] = minutes % 10;
    segment_data[1] = minutes / 10;
    segment_data[2] = (colonDisplay == 1) ? 10 : 11;
    1190:	8a e0       	ldi	r24, 0x0A	; 10
    1192:	d2 cf       	rjmp	.-92     	; 0x1138 <__stack+0x39>

00001194 <__divmodhi4>:
    1194:	97 fb       	bst	r25, 7
    1196:	07 2e       	mov	r0, r23
    1198:	16 f4       	brtc	.+4      	; 0x119e <__divmodhi4+0xa>
    119a:	00 94       	com	r0
    119c:	07 d0       	rcall	.+14     	; 0x11ac <__divmodhi4_neg1>
    119e:	77 fd       	sbrc	r23, 7
    11a0:	09 d0       	rcall	.+18     	; 0x11b4 <__divmodhi4_neg2>
    11a2:	0e 94 0c 09 	call	0x1218	; 0x1218 <__udivmodhi4>
    11a6:	07 fc       	sbrc	r0, 7
    11a8:	05 d0       	rcall	.+10     	; 0x11b4 <__divmodhi4_neg2>
    11aa:	3e f4       	brtc	.+14     	; 0x11ba <__divmodhi4_exit>

000011ac <__divmodhi4_neg1>:
    11ac:	90 95       	com	r25
    11ae:	81 95       	neg	r24
    11b0:	9f 4f       	sbci	r25, 0xFF	; 255
    11b2:	08 95       	ret

000011b4 <__divmodhi4_neg2>:
    11b4:	70 95       	com	r23
    11b6:	61 95       	neg	r22
    11b8:	7f 4f       	sbci	r23, 0xFF	; 255

000011ba <__divmodhi4_exit>:
    11ba:	08 95       	ret

000011bc <__divmodsi4>:
    11bc:	05 2e       	mov	r0, r21
    11be:	97 fb       	bst	r25, 7
    11c0:	1e f4       	brtc	.+6      	; 0x11c8 <__divmodsi4+0xc>
    11c2:	00 94       	com	r0
    11c4:	0e 94 f5 08 	call	0x11ea	; 0x11ea <__negsi2>
    11c8:	57 fd       	sbrc	r21, 7
    11ca:	07 d0       	rcall	.+14     	; 0x11da <__divmodsi4_neg2>
    11cc:	0e 94 20 09 	call	0x1240	; 0x1240 <__udivmodsi4>
    11d0:	07 fc       	sbrc	r0, 7
    11d2:	03 d0       	rcall	.+6      	; 0x11da <__divmodsi4_neg2>
    11d4:	4e f4       	brtc	.+18     	; 0x11e8 <__divmodsi4_exit>
    11d6:	0c 94 f5 08 	jmp	0x11ea	; 0x11ea <__negsi2>

000011da <__divmodsi4_neg2>:
    11da:	50 95       	com	r21
    11dc:	40 95       	com	r20
    11de:	30 95       	com	r19
    11e0:	21 95       	neg	r18
    11e2:	3f 4f       	sbci	r19, 0xFF	; 255
    11e4:	4f 4f       	sbci	r20, 0xFF	; 255
    11e6:	5f 4f       	sbci	r21, 0xFF	; 255

000011e8 <__divmodsi4_exit>:
    11e8:	08 95       	ret

000011ea <__negsi2>:
    11ea:	90 95       	com	r25
    11ec:	80 95       	com	r24
    11ee:	70 95       	com	r23
    11f0:	61 95       	neg	r22
    11f2:	7f 4f       	sbci	r23, 0xFF	; 255
    11f4:	8f 4f       	sbci	r24, 0xFF	; 255
    11f6:	9f 4f       	sbci	r25, 0xFF	; 255
    11f8:	08 95       	ret

000011fa <__umulhisi3>:
    11fa:	a2 9f       	mul	r26, r18
    11fc:	b0 01       	movw	r22, r0
    11fe:	b3 9f       	mul	r27, r19
    1200:	c0 01       	movw	r24, r0
    1202:	a3 9f       	mul	r26, r19
    1204:	70 0d       	add	r23, r0
    1206:	81 1d       	adc	r24, r1
    1208:	11 24       	eor	r1, r1
    120a:	91 1d       	adc	r25, r1
    120c:	b2 9f       	mul	r27, r18
    120e:	70 0d       	add	r23, r0
    1210:	81 1d       	adc	r24, r1
    1212:	11 24       	eor	r1, r1
    1214:	91 1d       	adc	r25, r1
    1216:	08 95       	ret

00001218 <__udivmodhi4>:
    1218:	aa 1b       	sub	r26, r26
    121a:	bb 1b       	sub	r27, r27
    121c:	51 e1       	ldi	r21, 0x11	; 17
    121e:	07 c0       	rjmp	.+14     	; 0x122e <__udivmodhi4_ep>

00001220 <__udivmodhi4_loop>:
    1220:	aa 1f       	adc	r26, r26
    1222:	bb 1f       	adc	r27, r27
    1224:	a6 17       	cp	r26, r22
    1226:	b7 07       	cpc	r27, r23
    1228:	10 f0       	brcs	.+4      	; 0x122e <__udivmodhi4_ep>
    122a:	a6 1b       	sub	r26, r22
    122c:	b7 0b       	sbc	r27, r23

0000122e <__udivmodhi4_ep>:
    122e:	88 1f       	adc	r24, r24
    1230:	99 1f       	adc	r25, r25
    1232:	5a 95       	dec	r21
    1234:	a9 f7       	brne	.-22     	; 0x1220 <__udivmodhi4_loop>
    1236:	80 95       	com	r24
    1238:	90 95       	com	r25
    123a:	bc 01       	movw	r22, r24
    123c:	cd 01       	movw	r24, r26
    123e:	08 95       	ret

00001240 <__udivmodsi4>:
    1240:	a1 e2       	ldi	r26, 0x21	; 33
    1242:	1a 2e       	mov	r1, r26
    1244:	aa 1b       	sub	r26, r26
    1246:	bb 1b       	sub	r27, r27
    1248:	fd 01       	movw	r30, r26
    124a:	0d c0       	rjmp	.+26     	; 0x1266 <__udivmodsi4_ep>

0000124c <__udivmodsi4_loop>:
    124c:	aa 1f       	adc	r26, r26
    124e:	bb 1f       	adc	r27, r27
    1250:	ee 1f       	adc	r30, r30
    1252:	ff 1f       	adc	r31, r31
    1254:	a2 17       	cp	r26, r18
    1256:	b3 07       	cpc	r27, r19
    1258:	e4 07       	cpc	r30, r20
    125a:	f5 07       	cpc	r31, r21
    125c:	20 f0       	brcs	.+8      	; 0x1266 <__udivmodsi4_ep>
    125e:	a2 1b       	sub	r26, r18
    1260:	b3 0b       	sbc	r27, r19
    1262:	e4 0b       	sbc	r30, r20
    1264:	f5 0b       	sbc	r31, r21

00001266 <__udivmodsi4_ep>:
    1266:	66 1f       	adc	r22, r22
    1268:	77 1f       	adc	r23, r23
    126a:	88 1f       	adc	r24, r24
    126c:	99 1f       	adc	r25, r25
    126e:	1a 94       	dec	r1
    1270:	69 f7       	brne	.-38     	; 0x124c <__udivmodsi4_loop>
    1272:	60 95       	com	r22
    1274:	70 95       	com	r23
    1276:	80 95       	com	r24
    1278:	90 95       	com	r25
    127a:	9b 01       	movw	r18, r22
    127c:	ac 01       	movw	r20, r24
    127e:	bd 01       	movw	r22, r26
    1280:	cf 01       	movw	r24, r30
    1282:	08 95       	ret

00001284 <_exit>:
    1284:	f8 94       	cli

00001286 <__stop_program>:
    1286:	ff cf       	rjmp	.-2      	; 0x1286 <__stop_program>
